gpasm-1.4.0 #1107 (May  9 2015) build/sdcc/pr   12-2-2016  23:01:31         PAGE  1


LOC    OBJECT CODE    LINE  SOURCE TEXT
  VALUE

                      00001 ;--------------------------------------------------------
                      00002 ; File Created by SDCC : free open source ANSI-C Compiler
                      00003 ; Version 3.6.0 #9615 (Linux)
                      00004 ;--------------------------------------------------------
                      00005 ; PIC16 port for the Microchip 16-bit core micros
                      00006 ;--------------------------------------------------------
                      00007 
                      00008         .ident "SDCC version 3.6.0 #9615 [pic16 port]"
                      00009         .file   "../../../RF24_c/utility/XC8/spi.c"
                      00010         list    p=18f4620
                      00011         radix   dec
                      00012 
                      00013 
                      00014 ;--------------------------------------------------------
                      00015 ; public variables in this module
                      00016 ;--------------------------------------------------------
  0000                00017         global  _pinMode
  0000                00018         global  _digitalWrite
  0000                00019         global  _digitalRead
  0000                00020         global  _millis
  0000                00021         global  _delay
  0000                00022         global  _delayMicroseconds
  0000                00023         global  _SPI_begin
  0000                00024         global  _SPI_transfer
  0000                00025         global  _mtime
                      00026 
                      00027 ;--------------------------------------------------------
                      00028 ; extern variables in this module
                      00029 ;--------------------------------------------------------
  0000                00030         extern  _PORTAbits
  0000                00031         extern  _PORTBbits
  0000                00032         extern  _PORTCbits
  0000                00033         extern  _PORTDbits
  0000                00034         extern  _PORTEbits
  0000                00035         extern  _LATAbits
  0000                00036         extern  _LATBbits
  0000                00037         extern  _LATCbits
  0000                00038         extern  _LATDbits
  0000                00039         extern  _LATEbits
  0000                00040         extern  _DDRAbits
  0000                00041         extern  _TRISAbits
  0000                00042         extern  _DDRBbits
  0000                00043         extern  _TRISBbits
  0000                00044         extern  _DDRCbits
  0000                00045         extern  _TRISCbits
  0000                00046         extern  _DDRDbits
  0000                00047         extern  _TRISDbits
  0000                00048         extern  _DDREbits
  0000                00049         extern  _TRISEbits
  0000                00050         extern  _OSCTUNEbits
  0000                00051         extern  _PIE1bits
  0000                00052         extern  _PIR1bits
  0000                00053         extern  _IPR1bits
gpasm-1.4.0 #1107 (May  9 2015) build/sdcc/pr   12-2-2016  23:01:31         PAGE  2


LOC    OBJECT CODE    LINE  SOURCE TEXT
  VALUE

  0000                00054         extern  _PIE2bits
  0000                00055         extern  _PIR2bits
  0000                00056         extern  _IPR2bits
  0000                00057         extern  _EECON1bits
  0000                00058         extern  _RCSTAbits
  0000                00059         extern  _TXSTAbits
  0000                00060         extern  _T3CONbits
  0000                00061         extern  _CMCONbits
  0000                00062         extern  _CVRCONbits
  0000                00063         extern  _ECCP1ASbits
  0000                00064         extern  _PWM1CONbits
  0000                00065         extern  _BAUDCONbits
  0000                00066         extern  _BAUDCTLbits
  0000                00067         extern  _CCP2CONbits
  0000                00068         extern  _CCP1CONbits
  0000                00069         extern  _ADCON2bits
  0000                00070         extern  _ADCON1bits
  0000                00071         extern  _ADCON0bits
  0000                00072         extern  _SSPCON2bits
  0000                00073         extern  _SSPCON1bits
  0000                00074         extern  _SSPSTATbits
  0000                00075         extern  _T2CONbits
  0000                00076         extern  _T1CONbits
  0000                00077         extern  _RCONbits
  0000                00078         extern  _WDTCONbits
  0000                00079         extern  _HLVDCONbits
  0000                00080         extern  _LVDCONbits
  0000                00081         extern  _OSCCONbits
  0000                00082         extern  _T0CONbits
  0000                00083         extern  _STATUSbits
  0000                00084         extern  _INTCON3bits
  0000                00085         extern  _INTCON2bits
  0000                00086         extern  _INTCONbits
  0000                00087         extern  _STKPTRbits
  0000                00088         extern  _stdin
  0000                00089         extern  _stdout
  0000                00090         extern  _PORTA
  0000                00091         extern  _PORTB
  0000                00092         extern  _PORTC
  0000                00093         extern  _PORTD
  0000                00094         extern  _PORTE
  0000                00095         extern  _LATA
  0000                00096         extern  _LATB
  0000                00097         extern  _LATC
  0000                00098         extern  _LATD
  0000                00099         extern  _LATE
  0000                00100         extern  _DDRA
  0000                00101         extern  _TRISA
  0000                00102         extern  _DDRB
  0000                00103         extern  _TRISB
  0000                00104         extern  _DDRC
  0000                00105         extern  _TRISC
  0000                00106         extern  _DDRD
gpasm-1.4.0 #1107 (May  9 2015) build/sdcc/pr   12-2-2016  23:01:31         PAGE  3


LOC    OBJECT CODE    LINE  SOURCE TEXT
  VALUE

  0000                00107         extern  _TRISD
  0000                00108         extern  _DDRE
  0000                00109         extern  _TRISE
  0000                00110         extern  _OSCTUNE
  0000                00111         extern  _PIE1
  0000                00112         extern  _PIR1
  0000                00113         extern  _IPR1
  0000                00114         extern  _PIE2
  0000                00115         extern  _PIR2
  0000                00116         extern  _IPR2
  0000                00117         extern  _EECON1
  0000                00118         extern  _EECON2
  0000                00119         extern  _EEDATA
  0000                00120         extern  _EEADR
  0000                00121         extern  _EEADRH
  0000                00122         extern  _RCSTA
  0000                00123         extern  _TXSTA
  0000                00124         extern  _TXREG
  0000                00125         extern  _RCREG
  0000                00126         extern  _SPBRG
  0000                00127         extern  _SPBRGH
  0000                00128         extern  _T3CON
  0000                00129         extern  _TMR3
  0000                00130         extern  _TMR3L
  0000                00131         extern  _TMR3H
  0000                00132         extern  _CMCON
  0000                00133         extern  _CVRCON
  0000                00134         extern  _ECCP1AS
  0000                00135         extern  _PWM1CON
  0000                00136         extern  _BAUDCON
  0000                00137         extern  _BAUDCTL
  0000                00138         extern  _CCP2CON
  0000                00139         extern  _CCPR2
  0000                00140         extern  _CCPR2L
  0000                00141         extern  _CCPR2H
  0000                00142         extern  _CCP1CON
  0000                00143         extern  _CCPR1
  0000                00144         extern  _CCPR1L
  0000                00145         extern  _CCPR1H
  0000                00146         extern  _ADCON2
  0000                00147         extern  _ADCON1
  0000                00148         extern  _ADCON0
  0000                00149         extern  _ADRES
  0000                00150         extern  _ADRESL
  0000                00151         extern  _ADRESH
  0000                00152         extern  _SSPCON2
  0000                00153         extern  _SSPCON1
  0000                00154         extern  _SSPSTAT
  0000                00155         extern  _SSPADD
  0000                00156         extern  _SSPBUF
  0000                00157         extern  _T2CON
  0000                00158         extern  _PR2
  0000                00159         extern  _TMR2
gpasm-1.4.0 #1107 (May  9 2015) build/sdcc/pr   12-2-2016  23:01:31         PAGE  4


LOC    OBJECT CODE    LINE  SOURCE TEXT
  VALUE

  0000                00160         extern  _T1CON
  0000                00161         extern  _TMR1
  0000                00162         extern  _TMR1L
  0000                00163         extern  _TMR1H
  0000                00164         extern  _RCON
  0000                00165         extern  _WDTCON
  0000                00166         extern  _HLVDCON
  0000                00167         extern  _LVDCON
  0000                00168         extern  _OSCCON
  0000                00169         extern  _T0CON
  0000                00170         extern  _TMR0
  0000                00171         extern  _TMR0L
  0000                00172         extern  _TMR0H
  0000                00173         extern  _STATUS
  0000                00174         extern  _FSR2L
  0000                00175         extern  _FSR2H
  0000                00176         extern  _PLUSW2
  0000                00177         extern  _PREINC2
  0000                00178         extern  _POSTDEC2
  0000                00179         extern  _POSTINC2
  0000                00180         extern  _INDF2
  0000                00181         extern  _BSR
  0000                00182         extern  _FSR1L
  0000                00183         extern  _FSR1H
  0000                00184         extern  _PLUSW1
  0000                00185         extern  _PREINC1
  0000                00186         extern  _POSTDEC1
  0000                00187         extern  _POSTINC1
  0000                00188         extern  _INDF1
  0000                00189         extern  _WREG
  0000                00190         extern  _FSR0L
  0000                00191         extern  _FSR0H
  0000                00192         extern  _PLUSW0
  0000                00193         extern  _PREINC0
  0000                00194         extern  _POSTDEC0
  0000                00195         extern  _POSTINC0
  0000                00196         extern  _INDF0
  0000                00197         extern  _INTCON3
  0000                00198         extern  _INTCON2
  0000                00199         extern  _INTCON
  0000                00200         extern  _PROD
  0000                00201         extern  _PRODL
  0000                00202         extern  _PRODH
  0000                00203         extern  _TABLAT
  0000                00204         extern  _TBLPTR
  0000                00205         extern  _TBLPTRL
  0000                00206         extern  _TBLPTRH
  0000                00207         extern  _TBLPTRU
  0000                00208         extern  _PC
  0000                00209         extern  _PCL
  0000                00210         extern  _PCLATH
  0000                00211         extern  _PCLATU
  0000                00212         extern  _STKPTR
gpasm-1.4.0 #1107 (May  9 2015) build/sdcc/pr   12-2-2016  23:01:31         PAGE  5


LOC    OBJECT CODE    LINE  SOURCE TEXT
  VALUE

  0000                00213         extern  _TOS
  0000                00214         extern  _TOSL
  0000                00215         extern  _TOSH
  0000                00216         extern  _TOSU
                      00217 
                      00218 ;--------------------------------------------------------
                      00219 ;       Equates to used internal registers
                      00220 ;--------------------------------------------------------
  00000FD8            00221 STATUS  equ     0xfd8
  00000FF9            00222 PCL     equ     0xff9
  00000FFA            00223 PCLATH  equ     0xffa
  00000FFB            00224 PCLATU  equ     0xffb
  00000FE8            00225 WREG    equ     0xfe8
  00000FE9            00226 FSR0L   equ     0xfe9
  00000FE1            00227 FSR1L   equ     0xfe1
  00000FD9            00228 FSR2L   equ     0xfd9
  00000FE5            00229 POSTDEC1        equ     0xfe5
  00000FE4            00230 PREINC1 equ     0xfe4
  00000FDB            00231 PLUSW2  equ     0xfdb
  00000FF3            00232 PRODL   equ     0xff3
  00000FF4            00233 PRODH   equ     0xff4
                      00234 
                      00235 
                      00236 ; Internal registers
                      00237 .registers      udata_ovr       0x0000
000000                00238 r0x00   res     1
000001                00239 r0x01   res     1
000002                00240 r0x02   res     1
000003                00241 r0x03   res     1
000004                00242 r0x04   res     1
000005                00243 r0x05   res     1
000006                00244 r0x06   res     1
000007                00245 r0x07   res     1
                      00246 
                      00247 udata_spi_0     udata
000000                00248 _mtime  res     4
                      00249 
                      00250 ;--------------------------------------------------------
                      00251 ; global & static initialisations
                      00252 ;--------------------------------------------------------
                      00253 ; I code from now on!
                      00254 ; ; Starting pCode block
                      00255 S_spi__SPI_transfer     code
000000                00256 _SPI_transfer:
                      00257         .line   250; ../../../RF24_c/utility/XC8/spi.c  uint8_t SPI_transfer(uint8_t data)
000000 CFD9 FFE5      00258         MOVFF   FSR2L, POSTDEC1
000004 CFE1 FFD9      00259         MOVFF   FSR1L, FSR2L
000008 C??? F???      00260         MOVFF   r0x00, POSTDEC1
00000C 0E02           00261         MOVLW   0x02
00000E CFDB F000      00262         MOVFF   PLUSW2, r0x00
                      00263         .line   252; ../../../RF24_c/utility/XC8/spi.c  SSPSTATbits.BF = 0;
000012 90??           00264         BCF     _SSPSTATbits, 0
                      00265         .line   253; ../../../RF24_c/utility/XC8/spi.c  SSPBUF = data;  // Put value into SPI buffer
gpasm-1.4.0 #1107 (May  9 2015) build/sdcc/pr   12-2-2016  23:01:31         PAGE  6


LOC    OBJECT CODE    LINE  SOURCE TEXT
  VALUE

000014 C??? F???      00266         MOVFF   r0x00, _SSPBUF
000018                00267 _00328_DS_:
                      00268         .line   254; ../../../RF24_c/utility/XC8/spi.c  while (!SSPSTATbits.BF);         // Wait for the
                             transfer to finish
000018 A0??           00269         BTFSS   _SSPSTATbits, 0
00001A D???           00270         BRA     _00328_DS_
                      00271         .line   255; ../../../RF24_c/utility/XC8/spi.c  return SSPBUF;
00001C 50??           00272         MOVF    _SSPBUF, W
00001E CFE4 F000      00273         MOVFF   PREINC1, r0x00
000022 CFE4 FFD9      00274         MOVFF   PREINC1, FSR2L
000026 0012           00275         RETURN  
                      00276 
                      00277 ; ; Starting pCode block
                      00278 S_spi__SPI_begin        code
000000                00279 _SPI_begin:
                      00280         .line   224; ../../../RF24_c/utility/XC8/spi.c  void SPI_begin(void)
000000 CFD9 FFE5      00281         MOVFF   FSR2L, POSTDEC1
000004 CFE1 FFD9      00282         MOVFF   FSR1L, FSR2L
                      00283         .line   235; ../../../RF24_c/utility/XC8/spi.c  TRISCbits.TRISC4=1; 
000008 88??           00284         BSF     _TRISCbits, 4
                      00285         .line   237; ../../../RF24_c/utility/XC8/spi.c  TRISCbits.TRISC3=0;
00000A 96??           00286         BCF     _TRISCbits, 3
                      00287         .line   239; ../../../RF24_c/utility/XC8/spi.c  TRISCbits.TRISC5=0;
00000C 9A??           00288         BCF     _TRISCbits, 5
                      00289         .line   242; ../../../RF24_c/utility/XC8/spi.c  SSPCON1bits.SSPEN=0;
00000E 9A??           00290         BCF     _SSPCON1bits, 5
                      00291         .line   243; ../../../RF24_c/utility/XC8/spi.c  SSPSTATbits.CKE=1;
000010 8C??           00292         BSF     _SSPSTATbits, 6
                      00293         .line   244; ../../../RF24_c/utility/XC8/spi.c  SSPCON1bits.CKP=0;
000012 98??           00294         BCF     _SSPCON1bits, 4
                      00295         .line   245; ../../../RF24_c/utility/XC8/spi.c  SSPSTATbits.SMP=0;//0
000014 9E??           00296         BCF     _SSPSTATbits, 7
                      00297         .line   246; ../../../RF24_c/utility/XC8/spi.c  SSPCON1bits.SSPM=1;// FOSC/16
000016 50??           00298         MOVF    _SSPCON1bits, W
000018 0BF0           00299         ANDLW   0xf0
00001A 0901           00300         IORLW   0x01
Message[1301]: Using default destination of 0 (Access Bank).
00001C 6E??           00301         MOVWF   _SSPCON1bits
                      00302         .line   247; ../../../RF24_c/utility/XC8/spi.c  SSPCON1bits.SSPEN=1;
00001E 8A??           00303         BSF     _SSPCON1bits, 5
000020 CFE4 FFD9      00304         MOVFF   PREINC1, FSR2L
000024 0012           00305         RETURN  
                      00306 
                      00307 ; ; Starting pCode block
                      00308 S_spi__delayMicroseconds        code
000000                00309 _delayMicroseconds:
                      00310         .line   210; ../../../RF24_c/utility/XC8/spi.c  void delayMicroseconds(uint8_t d)
000000 CFD9 FFE5      00311         MOVFF   FSR2L, POSTDEC1
000004 CFE1 FFD9      00312         MOVFF   FSR1L, FSR2L
000008 C??? F???      00313         MOVFF   r0x00, POSTDEC1
00000C C??? F???      00314         MOVFF   r0x01, POSTDEC1
000010 C??? F???      00315         MOVFF   r0x02, POSTDEC1
000014 C??? F???      00316         MOVFF   r0x03, POSTDEC1
gpasm-1.4.0 #1107 (May  9 2015) build/sdcc/pr   12-2-2016  23:01:31         PAGE  7


LOC    OBJECT CODE    LINE  SOURCE TEXT
  VALUE

000018 C??? F???      00317         MOVFF   r0x04, POSTDEC1
00001C C??? F???      00318         MOVFF   r0x05, POSTDEC1
000020 C??? F???      00319         MOVFF   r0x06, POSTDEC1
000024 0E02           00320         MOVLW   0x02
000026 CFDB F000      00321         MOVFF   PLUSW2, r0x00
                      00322         .line   213; ../../../RF24_c/utility/XC8/spi.c  for(i=0;i<d;i++)
Message[1301]: Using default destination of 0 (Access Bank).
00002A 6A??           00323         CLRF    r0x01
Message[1301]: Using default destination of 0 (Access Bank).
00002C 6A??           00324         CLRF    r0x02
00002E                00325 _00301_DS_:
00002E C??? F???      00326         MOVFF   r0x00, r0x03
Message[1301]: Using default destination of 0 (Access Bank).
000032 6A??           00327         CLRF    r0x04
000034 50??           00328         MOVF    r0x04, W
000036 5C??           00329         SUBWF   r0x02, W
000038 E1??           00330         BNZ     _00318_DS_
00003A 50??           00331         MOVF    r0x03, W
00003C 5C??           00332         SUBWF   r0x01, W
00003E                00333 _00318_DS_:
00003E E2??           00334         BC      _00303_DS_
                      00335         .line   214; ../../../RF24_c/utility/XC8/spi.c  for (j =0 ; j < UNREP; j++)
000040 0E08           00336         MOVLW   0x08
Message[1301]: Using default destination of 0 (Access Bank).
000042 6E??           00337         MOVWF   r0x03
Message[1301]: Using default destination of 0 (Access Bank).
000044 6A??           00338         CLRF    r0x04
000046                00339 _00299_DS_:
000046 0000           00340         NOP
                      00341         
000048 50??           00342         MOVF    r0x03, W
00004A 0FFF           00343         ADDLW   0xff
Message[1301]: Using default destination of 0 (Access Bank).
00004C 6E??           00344         MOVWF   r0x05
00004E 0EFF           00345         MOVLW   0xff
000050 20??           00346         ADDWFC  r0x04, W
Message[1301]: Using default destination of 0 (Access Bank).
000052 6E??           00347         MOVWF   r0x06
000054 C??? F???      00348         MOVFF   r0x05, r0x03
000058 C??? F???      00349         MOVFF   r0x06, r0x04
                      00350         .line   214; ../../../RF24_c/utility/XC8/spi.c  for (j =0 ; j < UNREP; j++)
00005C 50??           00351         MOVF    r0x05, W
00005E 10??           00352         IORWF   r0x06, W
000060 E1??           00353         BNZ     _00299_DS_
                      00354         .line   213; ../../../RF24_c/utility/XC8/spi.c  for(i=0;i<d;i++)
000062 4A??           00355         INFSNZ  r0x01, F
000064 2A??           00356         INCF    r0x02, F
000066 D???           00357         BRA     _00301_DS_
000068                00358 _00303_DS_:
000068 CFE4 F000      00359         MOVFF   PREINC1, r0x06
00006C CFE4 F000      00360         MOVFF   PREINC1, r0x05
000070 CFE4 F000      00361         MOVFF   PREINC1, r0x04
000074 CFE4 F000      00362         MOVFF   PREINC1, r0x03
gpasm-1.4.0 #1107 (May  9 2015) build/sdcc/pr   12-2-2016  23:01:31         PAGE  8


LOC    OBJECT CODE    LINE  SOURCE TEXT
  VALUE

000078 CFE4 F000      00363         MOVFF   PREINC1, r0x02
00007C CFE4 F000      00364         MOVFF   PREINC1, r0x01
000080 CFE4 F000      00365         MOVFF   PREINC1, r0x00
000084 CFE4 FFD9      00366         MOVFF   PREINC1, FSR2L
000088 0012           00367         RETURN  
                      00368 
                      00369 ; ; Starting pCode block
                      00370 S_spi__delay    code
000000                00371 _delay:
                      00372         .line   181; ../../../RF24_c/utility/XC8/spi.c  void delay(uint16_t val)
000000 CFD9 FFE5      00373         MOVFF   FSR2L, POSTDEC1
000004 CFE1 FFD9      00374         MOVFF   FSR1L, FSR2L
000008 C??? F???      00375         MOVFF   r0x00, POSTDEC1
00000C C??? F???      00376         MOVFF   r0x01, POSTDEC1
000010 C??? F???      00377         MOVFF   r0x02, POSTDEC1
000014 C??? F???      00378         MOVFF   r0x03, POSTDEC1
000018 C??? F???      00379         MOVFF   r0x04, POSTDEC1
00001C C??? F???      00380         MOVFF   r0x05, POSTDEC1
000020 C??? F???      00381         MOVFF   r0x06, POSTDEC1
000024 C??? F???      00382         MOVFF   r0x07, POSTDEC1
000028 0E02           00383         MOVLW   0x02
00002A CFDB F000      00384         MOVFF   PLUSW2, r0x00
00002E 0E03           00385         MOVLW   0x03
000030 CFDB F000      00386         MOVFF   PLUSW2, r0x01
                      00387         .line   186; ../../../RF24_c/utility/XC8/spi.c  for (i =0; i< val; i++)
Message[1301]: Using default destination of 0 (Access Bank).
000034 6A??           00388         CLRF    r0x02
Message[1301]: Using default destination of 0 (Access Bank).
000036 6A??           00389         CLRF    r0x03
000038                00390 _00273_DS_:
000038 50??           00391         MOVF    r0x01, W
00003A 5C??           00392         SUBWF   r0x03, W
00003C E1??           00393         BNZ     _00290_DS_
00003E 50??           00394         MOVF    r0x00, W
000040 5C??           00395         SUBWF   r0x02, W
000042                00396 _00290_DS_:
000042 E2??           00397         BC      _00275_DS_
                      00398         .line   189; ../../../RF24_c/utility/XC8/spi.c  for (j =0 ; j < NREP; j++)
000044 0E20           00399         MOVLW   0x20
Message[1301]: Using default destination of 0 (Access Bank).
000046 6E??           00400         MOVWF   r0x04
000048 0E03           00401         MOVLW   0x03
Message[1301]: Using default destination of 0 (Access Bank).
00004A 6E??           00402         MOVWF   r0x05
00004C                00403 _00271_DS_:
00004C 0000           00404         NOP
00004E 0000           00405         NOP
000050 0000           00406         NOP
000052 0000           00407         NOP
000054 0000           00408         NOP
000056 0000           00409         NOP
000058 0000           00410         NOP
00005A 0000           00411         NOP
gpasm-1.4.0 #1107 (May  9 2015) build/sdcc/pr   12-2-2016  23:01:31         PAGE  9


LOC    OBJECT CODE    LINE  SOURCE TEXT
  VALUE

00005C 0000           00412         NOP
00005E 0000           00413         NOP
                      00414         
000060 50??           00415         MOVF    r0x04, W
000062 0FFF           00416         ADDLW   0xff
Message[1301]: Using default destination of 0 (Access Bank).
000064 6E??           00417         MOVWF   r0x06
000066 0EFF           00418         MOVLW   0xff
000068 20??           00419         ADDWFC  r0x05, W
Message[1301]: Using default destination of 0 (Access Bank).
00006A 6E??           00420         MOVWF   r0x07
00006C C??? F???      00421         MOVFF   r0x06, r0x04
000070 C??? F???      00422         MOVFF   r0x07, r0x05
                      00423         .line   189; ../../../RF24_c/utility/XC8/spi.c  for (j =0 ; j < NREP; j++)
000074 50??           00424         MOVF    r0x06, W
000076 10??           00425         IORWF   r0x07, W
000078 E1??           00426         BNZ     _00271_DS_
                      00427         .line   186; ../../../RF24_c/utility/XC8/spi.c  for (i =0; i< val; i++)
00007A 4A??           00428         INFSNZ  r0x02, F
00007C 2A??           00429         INCF    r0x03, F
00007E D???           00430         BRA     _00273_DS_
000080                00431 _00275_DS_:
000080 CFE4 F000      00432         MOVFF   PREINC1, r0x07
000084 CFE4 F000      00433         MOVFF   PREINC1, r0x06
000088 CFE4 F000      00434         MOVFF   PREINC1, r0x05
00008C CFE4 F000      00435         MOVFF   PREINC1, r0x04
000090 CFE4 F000      00436         MOVFF   PREINC1, r0x03
000094 CFE4 F000      00437         MOVFF   PREINC1, r0x02
000098 CFE4 F000      00438         MOVFF   PREINC1, r0x01
00009C CFE4 F000      00439         MOVFF   PREINC1, r0x00
0000A0 CFE4 FFD9      00440         MOVFF   PREINC1, FSR2L
0000A4 0012           00441         RETURN  
                      00442 
                      00443 ; ; Starting pCode block
                      00444 S_spi__millis   code
000000                00445 _millis:
                      00446         .line   173; ../../../RF24_c/utility/XC8/spi.c  long millis(void)
000000 CFD9 FFE5      00447         MOVFF   FSR2L, POSTDEC1
000004 CFE1 FFD9      00448         MOVFF   FSR1L, FSR2L
                      00449         .line   175; ../../../RF24_c/utility/XC8/spi.c  return mtime;
000008 C??? F???      00450         MOVFF   (_mtime + 3), FSR0L
00000C C??? F???      00451         MOVFF   (_mtime + 2), PRODH
000010 C??? F???      00452         MOVFF   (_mtime + 1), PRODL
000014 ????           00453         BANKSEL _mtime
000016 51??           00454         MOVF    _mtime, W, B
000018 CFE4 FFD9      00455         MOVFF   PREINC1, FSR2L
00001C 0012           00456         RETURN  
                      00457 
                      00458 ; ; Starting pCode block
                      00459 S_spi__digitalRead      code
000000                00460 _digitalRead:
                      00461         .line   117; ../../../RF24_c/utility/XC8/spi.c  uint8_t digitalRead(uint8_t pin)
000000 CFD9 FFE5      00462         MOVFF   FSR2L, POSTDEC1
gpasm-1.4.0 #1107 (May  9 2015) build/sdcc/pr   12-2-2016  23:01:31         PAGE 10


LOC    OBJECT CODE    LINE  SOURCE TEXT
  VALUE

000004 CFE1 FFD9      00463         MOVFF   FSR1L, FSR2L
000008 C??? F???      00464         MOVFF   r0x00, POSTDEC1
00000C C??? F???      00465         MOVFF   r0x01, POSTDEC1
000010 0E02           00466         MOVLW   0x02
000012 CFDB F000      00467         MOVFF   PLUSW2, r0x00
                      00468         .line   119; ../../../RF24_c/utility/XC8/spi.c  uint8_t ret =0;  
Message[1301]: Using default destination of 0 (Access Bank).
000016 6A??           00469         CLRF    r0x01
                      00470         .line   121; ../../../RF24_c/utility/XC8/spi.c  switch(pin)
000018 0E01           00471         MOVLW   0x01
00001A 5C??           00472         SUBWF   r0x00, W
00001C A0D8           00473         BTFSS   STATUS, 0
00001E D???           00474         BRA     _00246_DS_
000020 0E29           00475         MOVLW   0x29
000022 5C??           00476         SUBWF   r0x00, W
000024 B0D8           00477         BTFSC   STATUS, 0
000026 D???           00478         BRA     _00246_DS_
000028 06??           00479         DECF    r0x00, F
Message[1301]: Using default destination of 0 (Access Bank).
00002A 6AFA           00480         CLRF    PCLATH
Message[1301]: Using default destination of 0 (Access Bank).
00002C 6AFB           00481         CLRF    PCLATU
00002E 34??           00482         RLCF    r0x00, W
000030 36FA           00483         RLCF    PCLATH, F
000032 34E8           00484         RLCF    WREG, W
000034 36FA           00485         RLCF    PCLATH, F
000036 0BFC           00486         ANDLW   0xfc
000038 0F??           00487         ADDLW   LOW(_00257_DS_)
Message[1301]: Using default destination of 0 (Access Bank).
00003A 6EE5           00488         MOVWF   POSTDEC1
00003C 0E??           00489         MOVLW   HIGH(_00257_DS_)
00003E 22FA           00490         ADDWFC  PCLATH, F
000040 0E??           00491         MOVLW   UPPER(_00257_DS_)
000042 22FB           00492         ADDWFC  PCLATU, F
000044 50E4           00493         MOVF    PREINC1, W
Message[1301]: Using default destination of 0 (Access Bank).
000046 6EF9           00494         MOVWF   PCL
000048                00495 _00257_DS_:
000048 EF?? F0??      00496         GOTO    _00209_DS_
00004C EF?? F0??      00497         GOTO    _00210_DS_
000050 EF?? F0??      00498         GOTO    _00211_DS_
000054 EF?? F0??      00499         GOTO    _00212_DS_
000058 EF?? F0??      00500         GOTO    _00213_DS_
00005C EF?? F0??      00501         GOTO    _00214_DS_
000060 EF?? F0??      00502         GOTO    _00215_DS_
000064 EF?? F0??      00503         GOTO    _00216_DS_
000068 EF?? F0??      00504         GOTO    _00217_DS_
00006C EF?? F0??      00505         GOTO    _00218_DS_
000070 EF?? F0??      00506         GOTO    _00246_DS_
000074 EF?? F0??      00507         GOTO    _00246_DS_
000078 EF?? F0??      00508         GOTO    _00219_DS_
00007C EF?? F0??      00509         GOTO    _00220_DS_
000080 EF?? F0??      00510         GOTO    _00221_DS_
gpasm-1.4.0 #1107 (May  9 2015) build/sdcc/pr   12-2-2016  23:01:31         PAGE 11


LOC    OBJECT CODE    LINE  SOURCE TEXT
  VALUE

000084 EF?? F0??      00511         GOTO    _00222_DS_
000088 EF?? F0??      00512         GOTO    _00223_DS_
00008C EF?? F0??      00513         GOTO    _00224_DS_
000090 EF?? F0??      00514         GOTO    _00225_DS_
000094 EF?? F0??      00515         GOTO    _00226_DS_
000098 EF?? F0??      00516         GOTO    _00227_DS_
00009C EF?? F0??      00517         GOTO    _00228_DS_
0000A0 EF?? F0??      00518         GOTO    _00229_DS_
0000A4 EF?? F0??      00519         GOTO    _00230_DS_
0000A8 EF?? F0??      00520         GOTO    _00231_DS_
0000AC EF?? F0??      00521         GOTO    _00232_DS_
0000B0 EF?? F0??      00522         GOTO    _00233_DS_
0000B4 EF?? F0??      00523         GOTO    _00234_DS_
0000B8 EF?? F0??      00524         GOTO    _00235_DS_
0000BC EF?? F0??      00525         GOTO    _00236_DS_
0000C0 EF?? F0??      00526         GOTO    _00246_DS_
0000C4 EF?? F0??      00527         GOTO    _00246_DS_
0000C8 EF?? F0??      00528         GOTO    _00237_DS_
0000CC EF?? F0??      00529         GOTO    _00238_DS_
0000D0 EF?? F0??      00530         GOTO    _00239_DS_
0000D4 EF?? F0??      00531         GOTO    _00240_DS_
0000D8 EF?? F0??      00532         GOTO    _00241_DS_
0000DC EF?? F0??      00533         GOTO    _00242_DS_
0000E0 EF?? F0??      00534         GOTO    _00243_DS_
0000E4 EF?? F0??      00535         GOTO    _00244_DS_
0000E8                00536 _00209_DS_:
                      00537         .line   123; ../../../RF24_c/utility/XC8/spi.c  case 1: ret= PORTEbits.RE3; break;
Message[1301]: Using default destination of 0 (Access Bank).
0000E8 6A??           00538         CLRF    r0x00
0000EA B6??           00539         BTFSC   _PORTEbits, 3
0000EC 2A??           00540         INCF    r0x00, F
0000EE C??? F???      00541         MOVFF   r0x00, r0x01
0000F2 D???           00542         BRA     _00246_DS_
0000F4                00543 _00210_DS_:
                      00544         .line   124; ../../../RF24_c/utility/XC8/spi.c  case 2: ret= PORTAbits.RA0; break;
Message[1301]: Using default destination of 0 (Access Bank).
0000F4 6A??           00545         CLRF    r0x00
0000F6 B0??           00546         BTFSC   _PORTAbits, 0
0000F8 2A??           00547         INCF    r0x00, F
0000FA C??? F???      00548         MOVFF   r0x00, r0x01
0000FE D???           00549         BRA     _00246_DS_
000100                00550 _00211_DS_:
                      00551         .line   125; ../../../RF24_c/utility/XC8/spi.c  case 3: ret= PORTAbits.RA1; break;
Message[1301]: Using default destination of 0 (Access Bank).
000100 6A??           00552         CLRF    r0x00
000102 B2??           00553         BTFSC   _PORTAbits, 1
000104 2A??           00554         INCF    r0x00, F
000106 C??? F???      00555         MOVFF   r0x00, r0x01
00010A D???           00556         BRA     _00246_DS_
00010C                00557 _00212_DS_:
                      00558         .line   126; ../../../RF24_c/utility/XC8/spi.c  case 4: ret= PORTAbits.RA2; break;
Message[1301]: Using default destination of 0 (Access Bank).
00010C 6A??           00559         CLRF    r0x00
gpasm-1.4.0 #1107 (May  9 2015) build/sdcc/pr   12-2-2016  23:01:31         PAGE 12


LOC    OBJECT CODE    LINE  SOURCE TEXT
  VALUE

00010E B4??           00560         BTFSC   _PORTAbits, 2
000110 2A??           00561         INCF    r0x00, F
000112 C??? F???      00562         MOVFF   r0x00, r0x01
000116 D???           00563         BRA     _00246_DS_
000118                00564 _00213_DS_:
                      00565         .line   127; ../../../RF24_c/utility/XC8/spi.c  case 5: ret= PORTAbits.RA3; break;
Message[1301]: Using default destination of 0 (Access Bank).
000118 6A??           00566         CLRF    r0x00
00011A B6??           00567         BTFSC   _PORTAbits, 3
00011C 2A??           00568         INCF    r0x00, F
00011E C??? F???      00569         MOVFF   r0x00, r0x01
000122 D???           00570         BRA     _00246_DS_
000124                00571 _00214_DS_:
                      00572         .line   128; ../../../RF24_c/utility/XC8/spi.c  case 6: ret= PORTAbits.RA4; break;
Message[1301]: Using default destination of 0 (Access Bank).
000124 6A??           00573         CLRF    r0x00
000126 B8??           00574         BTFSC   _PORTAbits, 4
000128 2A??           00575         INCF    r0x00, F
00012A C??? F???      00576         MOVFF   r0x00, r0x01
00012E D???           00577         BRA     _00246_DS_
000130                00578 _00215_DS_:
                      00579         .line   129; ../../../RF24_c/utility/XC8/spi.c  case 7: ret= PORTAbits.RA5; break;
Message[1301]: Using default destination of 0 (Access Bank).
000130 6A??           00580         CLRF    r0x00
000132 BA??           00581         BTFSC   _PORTAbits, 5
000134 2A??           00582         INCF    r0x00, F
000136 C??? F???      00583         MOVFF   r0x00, r0x01
00013A D???           00584         BRA     _00246_DS_
00013C                00585 _00216_DS_:
                      00586         .line   130; ../../../RF24_c/utility/XC8/spi.c  case 8: ret= PORTEbits.RE0; break;
Message[1301]: Using default destination of 0 (Access Bank).
00013C 6A??           00587         CLRF    r0x00
00013E B0??           00588         BTFSC   _PORTEbits, 0
000140 2A??           00589         INCF    r0x00, F
000142 C??? F???      00590         MOVFF   r0x00, r0x01
000146 D???           00591         BRA     _00246_DS_
000148                00592 _00217_DS_:
                      00593         .line   131; ../../../RF24_c/utility/XC8/spi.c  case 9: ret= PORTEbits.RE1; break;
Message[1301]: Using default destination of 0 (Access Bank).
000148 6A??           00594         CLRF    r0x00
00014A B2??           00595         BTFSC   _PORTEbits, 1
00014C 2A??           00596         INCF    r0x00, F
00014E C??? F???      00597         MOVFF   r0x00, r0x01
000152 D???           00598         BRA     _00246_DS_
000154                00599 _00218_DS_:
                      00600         .line   132; ../../../RF24_c/utility/XC8/spi.c  case 10: ret= PORTEbits.RE2; break;
Message[1301]: Using default destination of 0 (Access Bank).
000154 6A??           00601         CLRF    r0x00
000156 B4??           00602         BTFSC   _PORTEbits, 2
000158 2A??           00603         INCF    r0x00, F
00015A C??? F???      00604         MOVFF   r0x00, r0x01
00015E D???           00605         BRA     _00246_DS_
000160                00606 _00219_DS_:
gpasm-1.4.0 #1107 (May  9 2015) build/sdcc/pr   12-2-2016  23:01:31         PAGE 13


LOC    OBJECT CODE    LINE  SOURCE TEXT
  VALUE

                      00607         .line   136; ../../../RF24_c/utility/XC8/spi.c  case 13: ret= PORTAbits.RA7; break;
Message[1301]: Using default destination of 0 (Access Bank).
000160 6A??           00608         CLRF    r0x00
000162 BE??           00609         BTFSC   _PORTAbits, 7
000164 2A??           00610         INCF    r0x00, F
000166 C??? F???      00611         MOVFF   r0x00, r0x01
00016A D???           00612         BRA     _00246_DS_
00016C                00613 _00220_DS_:
                      00614         .line   138; ../../../RF24_c/utility/XC8/spi.c  case 14: ret= PORTAbits.RA6; break;
Message[1301]: Using default destination of 0 (Access Bank).
00016C 6A??           00615         CLRF    r0x00
00016E BC??           00616         BTFSC   _PORTAbits, 6
000170 2A??           00617         INCF    r0x00, F
000172 C??? F???      00618         MOVFF   r0x00, r0x01
000176 D???           00619         BRA     _00246_DS_
000178                00620 _00221_DS_:
                      00621         .line   139; ../../../RF24_c/utility/XC8/spi.c  case 15: ret= PORTCbits.RC0; break;
Message[1301]: Using default destination of 0 (Access Bank).
000178 6A??           00622         CLRF    r0x00
00017A B0??           00623         BTFSC   _PORTCbits, 0
00017C 2A??           00624         INCF    r0x00, F
00017E C??? F???      00625         MOVFF   r0x00, r0x01
000182 D???           00626         BRA     _00246_DS_
000184                00627 _00222_DS_:
                      00628         .line   140; ../../../RF24_c/utility/XC8/spi.c  case 16: ret= PORTCbits.RC1; break;
Message[1301]: Using default destination of 0 (Access Bank).
000184 6A??           00629         CLRF    r0x00
000186 B2??           00630         BTFSC   _PORTCbits, 1
000188 2A??           00631         INCF    r0x00, F
00018A C??? F???      00632         MOVFF   r0x00, r0x01
00018E D???           00633         BRA     _00246_DS_
000190                00634 _00223_DS_:
                      00635         .line   141; ../../../RF24_c/utility/XC8/spi.c  case 17: ret= PORTCbits.RC2; break;
Message[1301]: Using default destination of 0 (Access Bank).
000190 6A??           00636         CLRF    r0x00
000192 B4??           00637         BTFSC   _PORTCbits, 2
000194 2A??           00638         INCF    r0x00, F
000196 C??? F???      00639         MOVFF   r0x00, r0x01
00019A D???           00640         BRA     _00246_DS_
00019C                00641 _00224_DS_:
                      00642         .line   143; ../../../RF24_c/utility/XC8/spi.c  case 18: ret= PORTCbits.RC3; break;
Message[1301]: Using default destination of 0 (Access Bank).
00019C 6A??           00643         CLRF    r0x00
00019E B6??           00644         BTFSC   _PORTCbits, 3
0001A0 2A??           00645         INCF    r0x00, F
0001A2 C??? F???      00646         MOVFF   r0x00, r0x01
0001A6 D???           00647         BRA     _00246_DS_
0001A8                00648 _00225_DS_:
                      00649         .line   145; ../../../RF24_c/utility/XC8/spi.c  case 19: ret= PORTDbits.RD0; break;
Message[1301]: Using default destination of 0 (Access Bank).
0001A8 6A??           00650         CLRF    r0x00
0001AA B0??           00651         BTFSC   _PORTDbits, 0
0001AC 2A??           00652         INCF    r0x00, F
gpasm-1.4.0 #1107 (May  9 2015) build/sdcc/pr   12-2-2016  23:01:31         PAGE 14


LOC    OBJECT CODE    LINE  SOURCE TEXT
  VALUE

0001AE C??? F???      00653         MOVFF   r0x00, r0x01
0001B2 D???           00654         BRA     _00246_DS_
0001B4                00655 _00226_DS_:
                      00656         .line   146; ../../../RF24_c/utility/XC8/spi.c  case 20: ret= PORTDbits.RD1; break;
Message[1301]: Using default destination of 0 (Access Bank).
0001B4 6A??           00657         CLRF    r0x00
0001B6 B2??           00658         BTFSC   _PORTDbits, 1
0001B8 2A??           00659         INCF    r0x00, F
0001BA C??? F???      00660         MOVFF   r0x00, r0x01
0001BE D???           00661         BRA     _00246_DS_
0001C0                00662 _00227_DS_:
                      00663         .line   147; ../../../RF24_c/utility/XC8/spi.c  case 21: ret= PORTDbits.RD2; break;
Message[1301]: Using default destination of 0 (Access Bank).
0001C0 6A??           00664         CLRF    r0x00
0001C2 B4??           00665         BTFSC   _PORTDbits, 2
0001C4 2A??           00666         INCF    r0x00, F
0001C6 C??? F???      00667         MOVFF   r0x00, r0x01
0001CA D???           00668         BRA     _00246_DS_
0001CC                00669 _00228_DS_:
                      00670         .line   148; ../../../RF24_c/utility/XC8/spi.c  case 22: ret= PORTDbits.RD3; break;
Message[1301]: Using default destination of 0 (Access Bank).
0001CC 6A??           00671         CLRF    r0x00
0001CE B6??           00672         BTFSC   _PORTDbits, 3
0001D0 2A??           00673         INCF    r0x00, F
0001D2 C??? F???      00674         MOVFF   r0x00, r0x01
0001D6 D???           00675         BRA     _00246_DS_
0001D8                00676 _00229_DS_:
                      00677         .line   149; ../../../RF24_c/utility/XC8/spi.c  case 23: ret= PORTCbits.RC4; break;
Message[1301]: Using default destination of 0 (Access Bank).
0001D8 6A??           00678         CLRF    r0x00
0001DA B8??           00679         BTFSC   _PORTCbits, 4
0001DC 2A??           00680         INCF    r0x00, F
0001DE C??? F???      00681         MOVFF   r0x00, r0x01
0001E2 D???           00682         BRA     _00246_DS_
0001E4                00683 _00230_DS_:
                      00684         .line   150; ../../../RF24_c/utility/XC8/spi.c  case 24: ret= PORTCbits.RC5; break;
Message[1301]: Using default destination of 0 (Access Bank).
0001E4 6A??           00685         CLRF    r0x00
0001E6 BA??           00686         BTFSC   _PORTCbits, 5
0001E8 2A??           00687         INCF    r0x00, F
0001EA C??? F???      00688         MOVFF   r0x00, r0x01
0001EE D???           00689         BRA     _00246_DS_
0001F0                00690 _00231_DS_:
                      00691         .line   151; ../../../RF24_c/utility/XC8/spi.c  case 25: ret= PORTCbits.RC6; break;
Message[1301]: Using default destination of 0 (Access Bank).
0001F0 6A??           00692         CLRF    r0x00
0001F2 BC??           00693         BTFSC   _PORTCbits, 6
0001F4 2A??           00694         INCF    r0x00, F
0001F6 C??? F???      00695         MOVFF   r0x00, r0x01
0001FA D???           00696         BRA     _00246_DS_
0001FC                00697 _00232_DS_:
                      00698         .line   152; ../../../RF24_c/utility/XC8/spi.c  case 26: ret= PORTCbits.RC7; break;
Message[1301]: Using default destination of 0 (Access Bank).
gpasm-1.4.0 #1107 (May  9 2015) build/sdcc/pr   12-2-2016  23:01:31         PAGE 15


LOC    OBJECT CODE    LINE  SOURCE TEXT
  VALUE

0001FC 6A??           00699         CLRF    r0x00
0001FE BE??           00700         BTFSC   _PORTCbits, 7
000200 2A??           00701         INCF    r0x00, F
000202 C??? F???      00702         MOVFF   r0x00, r0x01
000206 D???           00703         BRA     _00246_DS_
000208                00704 _00233_DS_:
                      00705         .line   153; ../../../RF24_c/utility/XC8/spi.c  case 27: ret= PORTDbits.RD4; break;
Message[1301]: Using default destination of 0 (Access Bank).
000208 6A??           00706         CLRF    r0x00
00020A B8??           00707         BTFSC   _PORTDbits, 4
00020C 2A??           00708         INCF    r0x00, F
00020E C??? F???      00709         MOVFF   r0x00, r0x01
000212 D???           00710         BRA     _00246_DS_
000214                00711 _00234_DS_:
                      00712         .line   154; ../../../RF24_c/utility/XC8/spi.c  case 28: ret= PORTDbits.RD5; break;
Message[1301]: Using default destination of 0 (Access Bank).
000214 6A??           00713         CLRF    r0x00
000216 BA??           00714         BTFSC   _PORTDbits, 5
000218 2A??           00715         INCF    r0x00, F
00021A C??? F???      00716         MOVFF   r0x00, r0x01
00021E D???           00717         BRA     _00246_DS_
000220                00718 _00235_DS_:
                      00719         .line   155; ../../../RF24_c/utility/XC8/spi.c  case 29: ret= PORTDbits.RD6; break;
Message[1301]: Using default destination of 0 (Access Bank).
000220 6A??           00720         CLRF    r0x00
000222 BC??           00721         BTFSC   _PORTDbits, 6
000224 2A??           00722         INCF    r0x00, F
000226 C??? F???      00723         MOVFF   r0x00, r0x01
00022A D???           00724         BRA     _00246_DS_
00022C                00725 _00236_DS_:
                      00726         .line   156; ../../../RF24_c/utility/XC8/spi.c  case 30: ret= PORTDbits.RD7; break;
Message[1301]: Using default destination of 0 (Access Bank).
00022C 6A??           00727         CLRF    r0x00
00022E BE??           00728         BTFSC   _PORTDbits, 7
000230 2A??           00729         INCF    r0x00, F
000232 C??? F???      00730         MOVFF   r0x00, r0x01
000236 D???           00731         BRA     _00246_DS_
000238                00732 _00237_DS_:
                      00733         .line   159; ../../../RF24_c/utility/XC8/spi.c  case 33: ret= PORTBbits.RB0; break;
Message[1301]: Using default destination of 0 (Access Bank).
000238 6A??           00734         CLRF    r0x00
00023A B0??           00735         BTFSC   _PORTBbits, 0
00023C 2A??           00736         INCF    r0x00, F
00023E C??? F???      00737         MOVFF   r0x00, r0x01
000242 D???           00738         BRA     _00246_DS_
000244                00739 _00238_DS_:
                      00740         .line   160; ../../../RF24_c/utility/XC8/spi.c  case 34: ret= PORTBbits.RB1; break;
Message[1301]: Using default destination of 0 (Access Bank).
000244 6A??           00741         CLRF    r0x00
000246 B2??           00742         BTFSC   _PORTBbits, 1
000248 2A??           00743         INCF    r0x00, F
00024A C??? F???      00744         MOVFF   r0x00, r0x01
00024E D???           00745         BRA     _00246_DS_
gpasm-1.4.0 #1107 (May  9 2015) build/sdcc/pr   12-2-2016  23:01:31         PAGE 16


LOC    OBJECT CODE    LINE  SOURCE TEXT
  VALUE

000250                00746 _00239_DS_:
                      00747         .line   161; ../../../RF24_c/utility/XC8/spi.c  case 35: ret= PORTBbits.RB2; break;
Message[1301]: Using default destination of 0 (Access Bank).
000250 6A??           00748         CLRF    r0x00
000252 B4??           00749         BTFSC   _PORTBbits, 2
000254 2A??           00750         INCF    r0x00, F
000256 C??? F???      00751         MOVFF   r0x00, r0x01
00025A D???           00752         BRA     _00246_DS_
00025C                00753 _00240_DS_:
                      00754         .line   162; ../../../RF24_c/utility/XC8/spi.c  case 36: ret= PORTBbits.RB3; break;
Message[1301]: Using default destination of 0 (Access Bank).
00025C 6A??           00755         CLRF    r0x00
00025E B6??           00756         BTFSC   _PORTBbits, 3
000260 2A??           00757         INCF    r0x00, F
000262 C??? F???      00758         MOVFF   r0x00, r0x01
000266 D???           00759         BRA     _00246_DS_
000268                00760 _00241_DS_:
                      00761         .line   163; ../../../RF24_c/utility/XC8/spi.c  case 37: ret= PORTBbits.RB4; break;
Message[1301]: Using default destination of 0 (Access Bank).
000268 6A??           00762         CLRF    r0x00
00026A B8??           00763         BTFSC   _PORTBbits, 4
00026C 2A??           00764         INCF    r0x00, F
00026E C??? F???      00765         MOVFF   r0x00, r0x01
000272 D???           00766         BRA     _00246_DS_
000274                00767 _00242_DS_:
                      00768         .line   164; ../../../RF24_c/utility/XC8/spi.c  case 38: ret= PORTBbits.RB5; break;
Message[1301]: Using default destination of 0 (Access Bank).
000274 6A??           00769         CLRF    r0x00
000276 BA??           00770         BTFSC   _PORTBbits, 5
000278 2A??           00771         INCF    r0x00, F
00027A C??? F???      00772         MOVFF   r0x00, r0x01
00027E D???           00773         BRA     _00246_DS_
000280                00774 _00243_DS_:
                      00775         .line   165; ../../../RF24_c/utility/XC8/spi.c  case 39: ret= PORTBbits.RB6; break;
Message[1301]: Using default destination of 0 (Access Bank).
000280 6A??           00776         CLRF    r0x00
000282 BC??           00777         BTFSC   _PORTBbits, 6
000284 2A??           00778         INCF    r0x00, F
000286 C??? F???      00779         MOVFF   r0x00, r0x01
00028A D???           00780         BRA     _00246_DS_
00028C                00781 _00244_DS_:
                      00782         .line   166; ../../../RF24_c/utility/XC8/spi.c  case 40: ret= PORTBbits.RB7; break;
Message[1301]: Using default destination of 0 (Access Bank).
00028C 6A??           00783         CLRF    r0x00
00028E BE??           00784         BTFSC   _PORTBbits, 7
000290 2A??           00785         INCF    r0x00, F
000292 C??? F???      00786         MOVFF   r0x00, r0x01
000296                00787 _00246_DS_:
                      00788         .line   170; ../../../RF24_c/utility/XC8/spi.c  return ret;  
000296 50??           00789         MOVF    r0x01, W
000298 CFE4 F000      00790         MOVFF   PREINC1, r0x01
00029C CFE4 F000      00791         MOVFF   PREINC1, r0x00
0002A0 CFE4 FFD9      00792         MOVFF   PREINC1, FSR2L
gpasm-1.4.0 #1107 (May  9 2015) build/sdcc/pr   12-2-2016  23:01:31         PAGE 17


LOC    OBJECT CODE    LINE  SOURCE TEXT
  VALUE

0002A4 0012           00793         RETURN  
                      00794 
                      00795 ; ; Starting pCode block
                      00796 S_spi__digitalWrite     code
000000                00797 _digitalWrite:
                      00798         .line   62; ../../../RF24_c/utility/XC8/spi.c   void digitalWrite(uint8_t pin,uint8_t mode)
000000 CFD9 FFE5      00799         MOVFF   FSR2L, POSTDEC1
000004 CFE1 FFD9      00800         MOVFF   FSR1L, FSR2L
000008 C??? F???      00801         MOVFF   r0x00, POSTDEC1
00000C C??? F???      00802         MOVFF   r0x01, POSTDEC1
000010 0E02           00803         MOVLW   0x02
000012 CFDB F000      00804         MOVFF   PLUSW2, r0x00
000016 0E03           00805         MOVLW   0x03
000018 CFDB F000      00806         MOVFF   PLUSW2, r0x01
                      00807         .line   64; ../../../RF24_c/utility/XC8/spi.c   switch(pin)
00001C 0E02           00808         MOVLW   0x02
00001E 5C??           00809         SUBWF   r0x00, W
000020 A0D8           00810         BTFSS   STATUS, 0
000022 D???           00811         BRA     _00194_DS_
000024 0E29           00812         MOVLW   0x29
000026 5C??           00813         SUBWF   r0x00, W
000028 B0D8           00814         BTFSC   STATUS, 0
00002A D???           00815         BRA     _00194_DS_
00002C 0EFE           00816         MOVLW   0xfe
00002E 26??           00817         ADDWF   r0x00, F
Message[1301]: Using default destination of 0 (Access Bank).
000030 6AFA           00818         CLRF    PCLATH
Message[1301]: Using default destination of 0 (Access Bank).
000032 6AFB           00819         CLRF    PCLATU
000034 34??           00820         RLCF    r0x00, W
000036 36FA           00821         RLCF    PCLATH, F
000038 34E8           00822         RLCF    WREG, W
00003A 36FA           00823         RLCF    PCLATH, F
00003C 0BFC           00824         ANDLW   0xfc
00003E 0F??           00825         ADDLW   LOW(_00204_DS_)
Message[1301]: Using default destination of 0 (Access Bank).
000040 6EE5           00826         MOVWF   POSTDEC1
000042 0E??           00827         MOVLW   HIGH(_00204_DS_)
000044 22FA           00828         ADDWFC  PCLATH, F
000046 0E??           00829         MOVLW   UPPER(_00204_DS_)
000048 22FB           00830         ADDWFC  PCLATU, F
00004A 50E4           00831         MOVF    PREINC1, W
Message[1301]: Using default destination of 0 (Access Bank).
00004C 6EF9           00832         MOVWF   PCL
00004E                00833 _00204_DS_:
00004E EF?? F0??      00834         GOTO    _00157_DS_
000052 EF?? F0??      00835         GOTO    _00158_DS_
000056 EF?? F0??      00836         GOTO    _00159_DS_
00005A EF?? F0??      00837         GOTO    _00160_DS_
00005E EF?? F0??      00838         GOTO    _00161_DS_
000062 EF?? F0??      00839         GOTO    _00162_DS_
000066 EF?? F0??      00840         GOTO    _00163_DS_
00006A EF?? F0??      00841         GOTO    _00164_DS_
gpasm-1.4.0 #1107 (May  9 2015) build/sdcc/pr   12-2-2016  23:01:31         PAGE 18


LOC    OBJECT CODE    LINE  SOURCE TEXT
  VALUE

00006E EF?? F0??      00842         GOTO    _00165_DS_
000072 EF?? F0??      00843         GOTO    _00194_DS_
000076 EF?? F0??      00844         GOTO    _00194_DS_
00007A EF?? F0??      00845         GOTO    _00166_DS_
00007E EF?? F0??      00846         GOTO    _00167_DS_
000082 EF?? F0??      00847         GOTO    _00168_DS_
000086 EF?? F0??      00848         GOTO    _00169_DS_
00008A EF?? F0??      00849         GOTO    _00170_DS_
00008E EF?? F0??      00850         GOTO    _00171_DS_
000092 EF?? F0??      00851         GOTO    _00172_DS_
000096 EF?? F0??      00852         GOTO    _00173_DS_
00009A EF?? F0??      00853         GOTO    _00174_DS_
00009E EF?? F0??      00854         GOTO    _00175_DS_
0000A2 EF?? F0??      00855         GOTO    _00176_DS_
0000A6 EF?? F0??      00856         GOTO    _00177_DS_
0000AA EF?? F0??      00857         GOTO    _00178_DS_
0000AE EF?? F0??      00858         GOTO    _00179_DS_
0000B2 EF?? F0??      00859         GOTO    _00180_DS_
0000B6 EF?? F0??      00860         GOTO    _00181_DS_
0000BA EF?? F0??      00861         GOTO    _00182_DS_
0000BE EF?? F0??      00862         GOTO    _00183_DS_
0000C2 EF?? F0??      00863         GOTO    _00194_DS_
0000C6 EF?? F0??      00864         GOTO    _00194_DS_
0000CA EF?? F0??      00865         GOTO    _00184_DS_
0000CE EF?? F0??      00866         GOTO    _00185_DS_
0000D2 EF?? F0??      00867         GOTO    _00186_DS_
0000D6 EF?? F0??      00868         GOTO    _00187_DS_
0000DA EF?? F0??      00869         GOTO    _00188_DS_
0000DE EF?? F0??      00870         GOTO    _00189_DS_
0000E2 EF?? F0??      00871         GOTO    _00190_DS_
0000E6 EF?? F0??      00872         GOTO    _00191_DS_
0000EA                00873 _00157_DS_:
                      00874         .line   67; ../../../RF24_c/utility/XC8/spi.c   case 2: LATAbits.LATA0=mode; break;
0000EA 50??           00875         MOVF    r0x01, W
0000EC 0B01           00876         ANDLW   0x01
Message[1301]: Using default destination of 0 (Access Bank).
0000EE 6EF4           00877         MOVWF   PRODH
0000F0 50??           00878         MOVF    _LATAbits, W
0000F2 0BFE           00879         ANDLW   0xfe
0000F4 10F4           00880         IORWF   PRODH, W
Message[1301]: Using default destination of 0 (Access Bank).
0000F6 6E??           00881         MOVWF   _LATAbits
0000F8 D???           00882         BRA     _00194_DS_
0000FA                00883 _00158_DS_:
                      00884         .line   68; ../../../RF24_c/utility/XC8/spi.c   case 3: LATAbits.LATA1=mode; break;
0000FA 50??           00885         MOVF    r0x01, W
0000FC 0B01           00886         ANDLW   0x01
0000FE 44E8           00887         RLNCF   WREG, W
Message[1301]: Using default destination of 0 (Access Bank).
000100 6EF4           00888         MOVWF   PRODH
000102 50??           00889         MOVF    _LATAbits, W
000104 0BFD           00890         ANDLW   0xfd
000106 10F4           00891         IORWF   PRODH, W
gpasm-1.4.0 #1107 (May  9 2015) build/sdcc/pr   12-2-2016  23:01:31         PAGE 19


LOC    OBJECT CODE    LINE  SOURCE TEXT
  VALUE

Message[1301]: Using default destination of 0 (Access Bank).
000108 6E??           00892         MOVWF   _LATAbits
00010A D???           00893         BRA     _00194_DS_
00010C                00894 _00159_DS_:
                      00895         .line   69; ../../../RF24_c/utility/XC8/spi.c   case 4: LATAbits.LATA2=mode; break;
00010C 50??           00896         MOVF    r0x01, W
00010E 0B01           00897         ANDLW   0x01
000110 44E8           00898         RLNCF   WREG, W
000112 44E8           00899         RLNCF   WREG, W
Message[1301]: Using default destination of 0 (Access Bank).
000114 6EF4           00900         MOVWF   PRODH
000116 50??           00901         MOVF    _LATAbits, W
000118 0BFB           00902         ANDLW   0xfb
00011A 10F4           00903         IORWF   PRODH, W
Message[1301]: Using default destination of 0 (Access Bank).
00011C 6E??           00904         MOVWF   _LATAbits
00011E D???           00905         BRA     _00194_DS_
000120                00906 _00160_DS_:
                      00907         .line   70; ../../../RF24_c/utility/XC8/spi.c   case 5: LATAbits.LATA3=mode; break;
000120 50??           00908         MOVF    r0x01, W
000122 0B01           00909         ANDLW   0x01
000124 38E8           00910         SWAPF   WREG, W
000126 40E8           00911         RRNCF   WREG, W
Message[1301]: Using default destination of 0 (Access Bank).
000128 6EF4           00912         MOVWF   PRODH
00012A 50??           00913         MOVF    _LATAbits, W
00012C 0BF7           00914         ANDLW   0xf7
00012E 10F4           00915         IORWF   PRODH, W
Message[1301]: Using default destination of 0 (Access Bank).
000130 6E??           00916         MOVWF   _LATAbits
000132 D???           00917         BRA     _00194_DS_
000134                00918 _00161_DS_:
                      00919         .line   71; ../../../RF24_c/utility/XC8/spi.c   case 6: LATAbits.LATA4=mode; break;
000134 50??           00920         MOVF    r0x01, W
000136 0B01           00921         ANDLW   0x01
000138 38E8           00922         SWAPF   WREG, W
Message[1301]: Using default destination of 0 (Access Bank).
00013A 6EF4           00923         MOVWF   PRODH
00013C 50??           00924         MOVF    _LATAbits, W
00013E 0BEF           00925         ANDLW   0xef
000140 10F4           00926         IORWF   PRODH, W
Message[1301]: Using default destination of 0 (Access Bank).
000142 6E??           00927         MOVWF   _LATAbits
000144 D???           00928         BRA     _00194_DS_
000146                00929 _00162_DS_:
                      00930         .line   72; ../../../RF24_c/utility/XC8/spi.c   case 7: LATAbits.LATA5=mode; break;
000146 50??           00931         MOVF    r0x01, W
000148 0B01           00932         ANDLW   0x01
00014A 38E8           00933         SWAPF   WREG, W
00014C 44E8           00934         RLNCF   WREG, W
Message[1301]: Using default destination of 0 (Access Bank).
00014E 6EF4           00935         MOVWF   PRODH
000150 50??           00936         MOVF    _LATAbits, W
gpasm-1.4.0 #1107 (May  9 2015) build/sdcc/pr   12-2-2016  23:01:31         PAGE 20


LOC    OBJECT CODE    LINE  SOURCE TEXT
  VALUE

000152 0BDF           00937         ANDLW   0xdf
000154 10F4           00938         IORWF   PRODH, W
Message[1301]: Using default destination of 0 (Access Bank).
000156 6E??           00939         MOVWF   _LATAbits
000158 D???           00940         BRA     _00194_DS_
00015A                00941 _00163_DS_:
                      00942         .line   73; ../../../RF24_c/utility/XC8/spi.c   case 8: LATEbits.LATE0=mode; break;
00015A 50??           00943         MOVF    r0x01, W
00015C 0B01           00944         ANDLW   0x01
Message[1301]: Using default destination of 0 (Access Bank).
00015E 6EF4           00945         MOVWF   PRODH
000160 50??           00946         MOVF    _LATEbits, W
000162 0BFE           00947         ANDLW   0xfe
000164 10F4           00948         IORWF   PRODH, W
Message[1301]: Using default destination of 0 (Access Bank).
000166 6E??           00949         MOVWF   _LATEbits
000168 D???           00950         BRA     _00194_DS_
00016A                00951 _00164_DS_:
                      00952         .line   74; ../../../RF24_c/utility/XC8/spi.c   case 9: LATEbits.LATE1=mode; break;
00016A 50??           00953         MOVF    r0x01, W
00016C 0B01           00954         ANDLW   0x01
00016E 44E8           00955         RLNCF   WREG, W
Message[1301]: Using default destination of 0 (Access Bank).
000170 6EF4           00956         MOVWF   PRODH
000172 50??           00957         MOVF    _LATEbits, W
000174 0BFD           00958         ANDLW   0xfd
000176 10F4           00959         IORWF   PRODH, W
Message[1301]: Using default destination of 0 (Access Bank).
000178 6E??           00960         MOVWF   _LATEbits
00017A D???           00961         BRA     _00194_DS_
00017C                00962 _00165_DS_:
                      00963         .line   75; ../../../RF24_c/utility/XC8/spi.c   case 10: LATEbits.LATE2=mode; break;
00017C 50??           00964         MOVF    r0x01, W
00017E 0B01           00965         ANDLW   0x01
000180 44E8           00966         RLNCF   WREG, W
000182 44E8           00967         RLNCF   WREG, W
Message[1301]: Using default destination of 0 (Access Bank).
000184 6EF4           00968         MOVWF   PRODH
000186 50??           00969         MOVF    _LATEbits, W
000188 0BFB           00970         ANDLW   0xfb
00018A 10F4           00971         IORWF   PRODH, W
Message[1301]: Using default destination of 0 (Access Bank).
00018C 6E??           00972         MOVWF   _LATEbits
00018E D???           00973         BRA     _00194_DS_
000190                00974 _00166_DS_:
                      00975         .line   79; ../../../RF24_c/utility/XC8/spi.c   case 13: LATAbits.LATA7=mode; break;
000190 50??           00976         MOVF    r0x01, W
000192 0B01           00977         ANDLW   0x01
000194 40E8           00978         RRNCF   WREG, W
Message[1301]: Using default destination of 0 (Access Bank).
000196 6EF4           00979         MOVWF   PRODH
000198 50??           00980         MOVF    _LATAbits, W
00019A 0B7F           00981         ANDLW   0x7f
gpasm-1.4.0 #1107 (May  9 2015) build/sdcc/pr   12-2-2016  23:01:31         PAGE 21


LOC    OBJECT CODE    LINE  SOURCE TEXT
  VALUE

00019C 10F4           00982         IORWF   PRODH, W
Message[1301]: Using default destination of 0 (Access Bank).
00019E 6E??           00983         MOVWF   _LATAbits
0001A0 D???           00984         BRA     _00194_DS_
0001A2                00985 _00167_DS_:
                      00986         .line   81; ../../../RF24_c/utility/XC8/spi.c   case 14: LATAbits.LATA6=mode; break;
0001A2 50??           00987         MOVF    r0x01, W
0001A4 0B01           00988         ANDLW   0x01
0001A6 40E8           00989         RRNCF   WREG, W
0001A8 40E8           00990         RRNCF   WREG, W
Message[1301]: Using default destination of 0 (Access Bank).
0001AA 6EF4           00991         MOVWF   PRODH
0001AC 50??           00992         MOVF    _LATAbits, W
0001AE 0BBF           00993         ANDLW   0xbf
0001B0 10F4           00994         IORWF   PRODH, W
Message[1301]: Using default destination of 0 (Access Bank).
0001B2 6E??           00995         MOVWF   _LATAbits
0001B4 D???           00996         BRA     _00194_DS_
0001B6                00997 _00168_DS_:
                      00998         .line   82; ../../../RF24_c/utility/XC8/spi.c   case 15: LATCbits.LATC0=mode; break;
0001B6 50??           00999         MOVF    r0x01, W
0001B8 0B01           01000         ANDLW   0x01
Message[1301]: Using default destination of 0 (Access Bank).
0001BA 6EF4           01001         MOVWF   PRODH
0001BC 50??           01002         MOVF    _LATCbits, W
0001BE 0BFE           01003         ANDLW   0xfe
0001C0 10F4           01004         IORWF   PRODH, W
Message[1301]: Using default destination of 0 (Access Bank).
0001C2 6E??           01005         MOVWF   _LATCbits
0001C4 D???           01006         BRA     _00194_DS_
0001C6                01007 _00169_DS_:
                      01008         .line   83; ../../../RF24_c/utility/XC8/spi.c   case 16: LATCbits.LATC1=mode; break;
0001C6 50??           01009         MOVF    r0x01, W
0001C8 0B01           01010         ANDLW   0x01
0001CA 44E8           01011         RLNCF   WREG, W
Message[1301]: Using default destination of 0 (Access Bank).
0001CC 6EF4           01012         MOVWF   PRODH
0001CE 50??           01013         MOVF    _LATCbits, W
0001D0 0BFD           01014         ANDLW   0xfd
0001D2 10F4           01015         IORWF   PRODH, W
Message[1301]: Using default destination of 0 (Access Bank).
0001D4 6E??           01016         MOVWF   _LATCbits
0001D6 D???           01017         BRA     _00194_DS_
0001D8                01018 _00170_DS_:
                      01019         .line   84; ../../../RF24_c/utility/XC8/spi.c   case 17: LATCbits.LATC2=mode; break;
0001D8 50??           01020         MOVF    r0x01, W
0001DA 0B01           01021         ANDLW   0x01
0001DC 44E8           01022         RLNCF   WREG, W
0001DE 44E8           01023         RLNCF   WREG, W
Message[1301]: Using default destination of 0 (Access Bank).
0001E0 6EF4           01024         MOVWF   PRODH
0001E2 50??           01025         MOVF    _LATCbits, W
0001E4 0BFB           01026         ANDLW   0xfb
gpasm-1.4.0 #1107 (May  9 2015) build/sdcc/pr   12-2-2016  23:01:31         PAGE 22


LOC    OBJECT CODE    LINE  SOURCE TEXT
  VALUE

0001E6 10F4           01027         IORWF   PRODH, W
Message[1301]: Using default destination of 0 (Access Bank).
0001E8 6E??           01028         MOVWF   _LATCbits
0001EA D???           01029         BRA     _00194_DS_
0001EC                01030 _00171_DS_:
                      01031         .line   86; ../../../RF24_c/utility/XC8/spi.c   case 18: LATCbits.LATC3=mode; break;
0001EC 50??           01032         MOVF    r0x01, W
0001EE 0B01           01033         ANDLW   0x01
0001F0 38E8           01034         SWAPF   WREG, W
0001F2 40E8           01035         RRNCF   WREG, W
Message[1301]: Using default destination of 0 (Access Bank).
0001F4 6EF4           01036         MOVWF   PRODH
0001F6 50??           01037         MOVF    _LATCbits, W
0001F8 0BF7           01038         ANDLW   0xf7
0001FA 10F4           01039         IORWF   PRODH, W
Message[1301]: Using default destination of 0 (Access Bank).
0001FC 6E??           01040         MOVWF   _LATCbits
0001FE D???           01041         BRA     _00194_DS_
000200                01042 _00172_DS_:
                      01043         .line   88; ../../../RF24_c/utility/XC8/spi.c   case 19: LATDbits.LATD0=mode; break;
000200 50??           01044         MOVF    r0x01, W
000202 0B01           01045         ANDLW   0x01
Message[1301]: Using default destination of 0 (Access Bank).
000204 6EF4           01046         MOVWF   PRODH
000206 50??           01047         MOVF    _LATDbits, W
000208 0BFE           01048         ANDLW   0xfe
00020A 10F4           01049         IORWF   PRODH, W
Message[1301]: Using default destination of 0 (Access Bank).
00020C 6E??           01050         MOVWF   _LATDbits
00020E D???           01051         BRA     _00194_DS_
000210                01052 _00173_DS_:
                      01053         .line   89; ../../../RF24_c/utility/XC8/spi.c   case 20: LATDbits.LATD1=mode; break;
000210 50??           01054         MOVF    r0x01, W
000212 0B01           01055         ANDLW   0x01
000214 44E8           01056         RLNCF   WREG, W
Message[1301]: Using default destination of 0 (Access Bank).
000216 6EF4           01057         MOVWF   PRODH
000218 50??           01058         MOVF    _LATDbits, W
00021A 0BFD           01059         ANDLW   0xfd
00021C 10F4           01060         IORWF   PRODH, W
Message[1301]: Using default destination of 0 (Access Bank).
00021E 6E??           01061         MOVWF   _LATDbits
000220 D???           01062         BRA     _00194_DS_
000222                01063 _00174_DS_:
                      01064         .line   90; ../../../RF24_c/utility/XC8/spi.c   case 21: LATDbits.LATD2=mode; break;
000222 50??           01065         MOVF    r0x01, W
000224 0B01           01066         ANDLW   0x01
000226 44E8           01067         RLNCF   WREG, W
000228 44E8           01068         RLNCF   WREG, W
Message[1301]: Using default destination of 0 (Access Bank).
00022A 6EF4           01069         MOVWF   PRODH
00022C 50??           01070         MOVF    _LATDbits, W
00022E 0BFB           01071         ANDLW   0xfb
gpasm-1.4.0 #1107 (May  9 2015) build/sdcc/pr   12-2-2016  23:01:31         PAGE 23


LOC    OBJECT CODE    LINE  SOURCE TEXT
  VALUE

000230 10F4           01072         IORWF   PRODH, W
Message[1301]: Using default destination of 0 (Access Bank).
000232 6E??           01073         MOVWF   _LATDbits
000234 D???           01074         BRA     _00194_DS_
000236                01075 _00175_DS_:
                      01076         .line   91; ../../../RF24_c/utility/XC8/spi.c   case 22: LATDbits.LATD3=mode; break;
000236 50??           01077         MOVF    r0x01, W
000238 0B01           01078         ANDLW   0x01
00023A 38E8           01079         SWAPF   WREG, W
00023C 40E8           01080         RRNCF   WREG, W
Message[1301]: Using default destination of 0 (Access Bank).
00023E 6EF4           01081         MOVWF   PRODH
000240 50??           01082         MOVF    _LATDbits, W
000242 0BF7           01083         ANDLW   0xf7
000244 10F4           01084         IORWF   PRODH, W
Message[1301]: Using default destination of 0 (Access Bank).
000246 6E??           01085         MOVWF   _LATDbits
000248 D???           01086         BRA     _00194_DS_
00024A                01087 _00176_DS_:
                      01088         .line   93; ../../../RF24_c/utility/XC8/spi.c   case 23: LATCbits.LATC4=mode; break;
00024A 50??           01089         MOVF    r0x01, W
00024C 0B01           01090         ANDLW   0x01
00024E 38E8           01091         SWAPF   WREG, W
Message[1301]: Using default destination of 0 (Access Bank).
000250 6EF4           01092         MOVWF   PRODH
000252 50??           01093         MOVF    _LATCbits, W
000254 0BEF           01094         ANDLW   0xef
000256 10F4           01095         IORWF   PRODH, W
Message[1301]: Using default destination of 0 (Access Bank).
000258 6E??           01096         MOVWF   _LATCbits
00025A D???           01097         BRA     _00194_DS_
00025C                01098 _00177_DS_:
                      01099         .line   94; ../../../RF24_c/utility/XC8/spi.c   case 24: LATCbits.LATC5=mode; break;
00025C 50??           01100         MOVF    r0x01, W
00025E 0B01           01101         ANDLW   0x01
000260 38E8           01102         SWAPF   WREG, W
000262 44E8           01103         RLNCF   WREG, W
Message[1301]: Using default destination of 0 (Access Bank).
000264 6EF4           01104         MOVWF   PRODH
000266 50??           01105         MOVF    _LATCbits, W
000268 0BDF           01106         ANDLW   0xdf
00026A 10F4           01107         IORWF   PRODH, W
Message[1301]: Using default destination of 0 (Access Bank).
00026C 6E??           01108         MOVWF   _LATCbits
00026E D???           01109         BRA     _00194_DS_
000270                01110 _00178_DS_:
                      01111         .line   96; ../../../RF24_c/utility/XC8/spi.c   case 25: LATCbits.LATC6=mode; break;
000270 50??           01112         MOVF    r0x01, W
000272 0B01           01113         ANDLW   0x01
000274 40E8           01114         RRNCF   WREG, W
000276 40E8           01115         RRNCF   WREG, W
Message[1301]: Using default destination of 0 (Access Bank).
000278 6EF4           01116         MOVWF   PRODH
gpasm-1.4.0 #1107 (May  9 2015) build/sdcc/pr   12-2-2016  23:01:31         PAGE 24


LOC    OBJECT CODE    LINE  SOURCE TEXT
  VALUE

00027A 50??           01117         MOVF    _LATCbits, W
00027C 0BBF           01118         ANDLW   0xbf
00027E 10F4           01119         IORWF   PRODH, W
Message[1301]: Using default destination of 0 (Access Bank).
000280 6E??           01120         MOVWF   _LATCbits
000282 D???           01121         BRA     _00194_DS_
000284                01122 _00179_DS_:
                      01123         .line   97; ../../../RF24_c/utility/XC8/spi.c   case 26: LATCbits.LATC7=mode; break;
000284 50??           01124         MOVF    r0x01, W
000286 0B01           01125         ANDLW   0x01
000288 40E8           01126         RRNCF   WREG, W
Message[1301]: Using default destination of 0 (Access Bank).
00028A 6EF4           01127         MOVWF   PRODH
00028C 50??           01128         MOVF    _LATCbits, W
00028E 0B7F           01129         ANDLW   0x7f
000290 10F4           01130         IORWF   PRODH, W
Message[1301]: Using default destination of 0 (Access Bank).
000292 6E??           01131         MOVWF   _LATCbits
000294 D???           01132         BRA     _00194_DS_
000296                01133 _00180_DS_:
                      01134         .line   98; ../../../RF24_c/utility/XC8/spi.c   case 27: LATDbits.LATD4=mode; break;
000296 50??           01135         MOVF    r0x01, W
000298 0B01           01136         ANDLW   0x01
00029A 38E8           01137         SWAPF   WREG, W
Message[1301]: Using default destination of 0 (Access Bank).
00029C 6EF4           01138         MOVWF   PRODH
00029E 50??           01139         MOVF    _LATDbits, W
0002A0 0BEF           01140         ANDLW   0xef
0002A2 10F4           01141         IORWF   PRODH, W
Message[1301]: Using default destination of 0 (Access Bank).
0002A4 6E??           01142         MOVWF   _LATDbits
0002A6 D???           01143         BRA     _00194_DS_
0002A8                01144 _00181_DS_:
                      01145         .line   99; ../../../RF24_c/utility/XC8/spi.c   case 28: LATDbits.LATD5=mode; break;
0002A8 50??           01146         MOVF    r0x01, W
0002AA 0B01           01147         ANDLW   0x01
0002AC 38E8           01148         SWAPF   WREG, W
0002AE 44E8           01149         RLNCF   WREG, W
Message[1301]: Using default destination of 0 (Access Bank).
0002B0 6EF4           01150         MOVWF   PRODH
0002B2 50??           01151         MOVF    _LATDbits, W
0002B4 0BDF           01152         ANDLW   0xdf
0002B6 10F4           01153         IORWF   PRODH, W
Message[1301]: Using default destination of 0 (Access Bank).
0002B8 6E??           01154         MOVWF   _LATDbits
0002BA D???           01155         BRA     _00194_DS_
0002BC                01156 _00182_DS_:
                      01157         .line   100; ../../../RF24_c/utility/XC8/spi.c  case 29: LATDbits.LATD6=mode; break;
0002BC 50??           01158         MOVF    r0x01, W
0002BE 0B01           01159         ANDLW   0x01
0002C0 40E8           01160         RRNCF   WREG, W
0002C2 40E8           01161         RRNCF   WREG, W
Message[1301]: Using default destination of 0 (Access Bank).
gpasm-1.4.0 #1107 (May  9 2015) build/sdcc/pr   12-2-2016  23:01:31         PAGE 25


LOC    OBJECT CODE    LINE  SOURCE TEXT
  VALUE

0002C4 6EF4           01162         MOVWF   PRODH
0002C6 50??           01163         MOVF    _LATDbits, W
0002C8 0BBF           01164         ANDLW   0xbf
0002CA 10F4           01165         IORWF   PRODH, W
Message[1301]: Using default destination of 0 (Access Bank).
0002CC 6E??           01166         MOVWF   _LATDbits
0002CE D???           01167         BRA     _00194_DS_
0002D0                01168 _00183_DS_:
                      01169         .line   101; ../../../RF24_c/utility/XC8/spi.c  case 30: LATDbits.LATD7=mode; break;
0002D0 50??           01170         MOVF    r0x01, W
0002D2 0B01           01171         ANDLW   0x01
0002D4 40E8           01172         RRNCF   WREG, W
Message[1301]: Using default destination of 0 (Access Bank).
0002D6 6EF4           01173         MOVWF   PRODH
0002D8 50??           01174         MOVF    _LATDbits, W
0002DA 0B7F           01175         ANDLW   0x7f
0002DC 10F4           01176         IORWF   PRODH, W
Message[1301]: Using default destination of 0 (Access Bank).
0002DE 6E??           01177         MOVWF   _LATDbits
0002E0 D???           01178         BRA     _00194_DS_
0002E2                01179 _00184_DS_:
                      01180         .line   104; ../../../RF24_c/utility/XC8/spi.c  case 33: LATBbits.LATB0=mode; break;
0002E2 50??           01181         MOVF    r0x01, W
0002E4 0B01           01182         ANDLW   0x01
Message[1301]: Using default destination of 0 (Access Bank).
0002E6 6EF4           01183         MOVWF   PRODH
0002E8 50??           01184         MOVF    _LATBbits, W
0002EA 0BFE           01185         ANDLW   0xfe
0002EC 10F4           01186         IORWF   PRODH, W
Message[1301]: Using default destination of 0 (Access Bank).
0002EE 6E??           01187         MOVWF   _LATBbits
0002F0 D???           01188         BRA     _00194_DS_
0002F2                01189 _00185_DS_:
                      01190         .line   105; ../../../RF24_c/utility/XC8/spi.c  case 34: LATBbits.LATB1=mode; break;
0002F2 50??           01191         MOVF    r0x01, W
0002F4 0B01           01192         ANDLW   0x01
0002F6 44E8           01193         RLNCF   WREG, W
Message[1301]: Using default destination of 0 (Access Bank).
0002F8 6EF4           01194         MOVWF   PRODH
0002FA 50??           01195         MOVF    _LATBbits, W
0002FC 0BFD           01196         ANDLW   0xfd
0002FE 10F4           01197         IORWF   PRODH, W
Message[1301]: Using default destination of 0 (Access Bank).
000300 6E??           01198         MOVWF   _LATBbits
000302 D???           01199         BRA     _00194_DS_
000304                01200 _00186_DS_:
                      01201         .line   106; ../../../RF24_c/utility/XC8/spi.c  case 35: LATBbits.LATB2=mode; break;
000304 50??           01202         MOVF    r0x01, W
000306 0B01           01203         ANDLW   0x01
000308 44E8           01204         RLNCF   WREG, W
00030A 44E8           01205         RLNCF   WREG, W
Message[1301]: Using default destination of 0 (Access Bank).
00030C 6EF4           01206         MOVWF   PRODH
gpasm-1.4.0 #1107 (May  9 2015) build/sdcc/pr   12-2-2016  23:01:31         PAGE 26


LOC    OBJECT CODE    LINE  SOURCE TEXT
  VALUE

00030E 50??           01207         MOVF    _LATBbits, W
000310 0BFB           01208         ANDLW   0xfb
000312 10F4           01209         IORWF   PRODH, W
Message[1301]: Using default destination of 0 (Access Bank).
000314 6E??           01210         MOVWF   _LATBbits
000316 D???           01211         BRA     _00194_DS_
000318                01212 _00187_DS_:
                      01213         .line   107; ../../../RF24_c/utility/XC8/spi.c  case 36: LATBbits.LATB3=mode; break;
000318 50??           01214         MOVF    r0x01, W
00031A 0B01           01215         ANDLW   0x01
00031C 38E8           01216         SWAPF   WREG, W
00031E 40E8           01217         RRNCF   WREG, W
Message[1301]: Using default destination of 0 (Access Bank).
000320 6EF4           01218         MOVWF   PRODH
000322 50??           01219         MOVF    _LATBbits, W
000324 0BF7           01220         ANDLW   0xf7
000326 10F4           01221         IORWF   PRODH, W
Message[1301]: Using default destination of 0 (Access Bank).
000328 6E??           01222         MOVWF   _LATBbits
00032A D???           01223         BRA     _00194_DS_
00032C                01224 _00188_DS_:
                      01225         .line   108; ../../../RF24_c/utility/XC8/spi.c  case 37: LATBbits.LATB4=mode; break;
00032C 50??           01226         MOVF    r0x01, W
00032E 0B01           01227         ANDLW   0x01
000330 38E8           01228         SWAPF   WREG, W
Message[1301]: Using default destination of 0 (Access Bank).
000332 6EF4           01229         MOVWF   PRODH
000334 50??           01230         MOVF    _LATBbits, W
000336 0BEF           01231         ANDLW   0xef
000338 10F4           01232         IORWF   PRODH, W
Message[1301]: Using default destination of 0 (Access Bank).
00033A 6E??           01233         MOVWF   _LATBbits
00033C D???           01234         BRA     _00194_DS_
00033E                01235 _00189_DS_:
                      01236         .line   109; ../../../RF24_c/utility/XC8/spi.c  case 38: LATBbits.LATB5=mode; break;
00033E 50??           01237         MOVF    r0x01, W
000340 0B01           01238         ANDLW   0x01
000342 38E8           01239         SWAPF   WREG, W
000344 44E8           01240         RLNCF   WREG, W
Message[1301]: Using default destination of 0 (Access Bank).
000346 6EF4           01241         MOVWF   PRODH
000348 50??           01242         MOVF    _LATBbits, W
00034A 0BDF           01243         ANDLW   0xdf
00034C 10F4           01244         IORWF   PRODH, W
Message[1301]: Using default destination of 0 (Access Bank).
00034E 6E??           01245         MOVWF   _LATBbits
000350 D???           01246         BRA     _00194_DS_
000352                01247 _00190_DS_:
                      01248         .line   110; ../../../RF24_c/utility/XC8/spi.c  case 39: LATBbits.LATB6=mode; break;
000352 50??           01249         MOVF    r0x01, W
000354 0B01           01250         ANDLW   0x01
000356 40E8           01251         RRNCF   WREG, W
000358 40E8           01252         RRNCF   WREG, W
gpasm-1.4.0 #1107 (May  9 2015) build/sdcc/pr   12-2-2016  23:01:31         PAGE 27


LOC    OBJECT CODE    LINE  SOURCE TEXT
  VALUE

Message[1301]: Using default destination of 0 (Access Bank).
00035A 6EF4           01253         MOVWF   PRODH
00035C 50??           01254         MOVF    _LATBbits, W
00035E 0BBF           01255         ANDLW   0xbf
000360 10F4           01256         IORWF   PRODH, W
Message[1301]: Using default destination of 0 (Access Bank).
000362 6E??           01257         MOVWF   _LATBbits
000364 D???           01258         BRA     _00194_DS_
000366                01259 _00191_DS_:
                      01260         .line   111; ../../../RF24_c/utility/XC8/spi.c  case 40: LATBbits.LATB7=mode; break;
000366 50??           01261         MOVF    r0x01, W
000368 0B01           01262         ANDLW   0x01
00036A 40E8           01263         RRNCF   WREG, W
Message[1301]: Using default destination of 0 (Access Bank).
00036C 6EF4           01264         MOVWF   PRODH
00036E 50??           01265         MOVF    _LATBbits, W
000370 0B7F           01266         ANDLW   0x7f
000372 10F4           01267         IORWF   PRODH, W
Message[1301]: Using default destination of 0 (Access Bank).
000374 6E??           01268         MOVWF   _LATBbits
000376                01269 _00194_DS_:
                      01270         .line   113; ../../../RF24_c/utility/XC8/spi.c  }
000376 CFE4 F000      01271         MOVFF   PREINC1, r0x01
00037A CFE4 F000      01272         MOVFF   PREINC1, r0x00
00037E CFE4 FFD9      01273         MOVFF   PREINC1, FSR2L
000382 0012           01274         RETURN  
                      01275 
                      01276 ; ; Starting pCode block
                      01277 S_spi__pinMode  code
000000                01278 _pinMode:
                      01279         .line   8; ../../../RF24_c/utility/XC8/spi.c    void pinMode(uint8_t pin,uint8_t mode)
000000 CFD9 FFE5      01280         MOVFF   FSR2L, POSTDEC1
000004 CFE1 FFD9      01281         MOVFF   FSR1L, FSR2L
000008 C??? F???      01282         MOVFF   r0x00, POSTDEC1
00000C C??? F???      01283         MOVFF   r0x01, POSTDEC1
000010 0E02           01284         MOVLW   0x02
000012 CFDB F000      01285         MOVFF   PLUSW2, r0x00
000016 0E03           01286         MOVLW   0x03
000018 CFDB F000      01287         MOVFF   PLUSW2, r0x01
                      01288         .line   10; ../../../RF24_c/utility/XC8/spi.c   switch(pin)
00001C 0E02           01289         MOVLW   0x02
00001E 5C??           01290         SUBWF   r0x00, W
000020 A0D8           01291         BTFSS   STATUS, 0
000022 D???           01292         BRA     _00142_DS_
000024 0E29           01293         MOVLW   0x29
000026 5C??           01294         SUBWF   r0x00, W
000028 B0D8           01295         BTFSC   STATUS, 0
00002A D???           01296         BRA     _00142_DS_
00002C 0EFE           01297         MOVLW   0xfe
00002E 26??           01298         ADDWF   r0x00, F
Message[1301]: Using default destination of 0 (Access Bank).
000030 6AFA           01299         CLRF    PCLATH
Message[1301]: Using default destination of 0 (Access Bank).
gpasm-1.4.0 #1107 (May  9 2015) build/sdcc/pr   12-2-2016  23:01:31         PAGE 28


LOC    OBJECT CODE    LINE  SOURCE TEXT
  VALUE

000032 6AFB           01300         CLRF    PCLATU
000034 34??           01301         RLCF    r0x00, W
000036 36FA           01302         RLCF    PCLATH, F
000038 34E8           01303         RLCF    WREG, W
00003A 36FA           01304         RLCF    PCLATH, F
00003C 0BFC           01305         ANDLW   0xfc
00003E 0F??           01306         ADDLW   LOW(_00152_DS_)
Message[1301]: Using default destination of 0 (Access Bank).
000040 6EE5           01307         MOVWF   POSTDEC1
000042 0E??           01308         MOVLW   HIGH(_00152_DS_)
000044 22FA           01309         ADDWFC  PCLATH, F
000046 0E??           01310         MOVLW   UPPER(_00152_DS_)
000048 22FB           01311         ADDWFC  PCLATU, F
00004A 50E4           01312         MOVF    PREINC1, W
Message[1301]: Using default destination of 0 (Access Bank).
00004C 6EF9           01313         MOVWF   PCL
00004E                01314 _00152_DS_:
00004E EF?? F0??      01315         GOTO    _00105_DS_
000052 EF?? F0??      01316         GOTO    _00106_DS_
000056 EF?? F0??      01317         GOTO    _00107_DS_
00005A EF?? F0??      01318         GOTO    _00108_DS_
00005E EF?? F0??      01319         GOTO    _00109_DS_
000062 EF?? F0??      01320         GOTO    _00110_DS_
000066 EF?? F0??      01321         GOTO    _00111_DS_
00006A EF?? F0??      01322         GOTO    _00112_DS_
00006E EF?? F0??      01323         GOTO    _00113_DS_
000072 EF?? F0??      01324         GOTO    _00142_DS_
000076 EF?? F0??      01325         GOTO    _00142_DS_
00007A EF?? F0??      01326         GOTO    _00114_DS_
00007E EF?? F0??      01327         GOTO    _00115_DS_
000082 EF?? F0??      01328         GOTO    _00116_DS_
000086 EF?? F0??      01329         GOTO    _00117_DS_
00008A EF?? F0??      01330         GOTO    _00118_DS_
00008E EF?? F0??      01331         GOTO    _00119_DS_
000092 EF?? F0??      01332         GOTO    _00120_DS_
000096 EF?? F0??      01333         GOTO    _00121_DS_
00009A EF?? F0??      01334         GOTO    _00122_DS_
00009E EF?? F0??      01335         GOTO    _00123_DS_
0000A2 EF?? F0??      01336         GOTO    _00124_DS_
0000A6 EF?? F0??      01337         GOTO    _00125_DS_
0000AA EF?? F0??      01338         GOTO    _00126_DS_
0000AE EF?? F0??      01339         GOTO    _00127_DS_
0000B2 EF?? F0??      01340         GOTO    _00128_DS_
0000B6 EF?? F0??      01341         GOTO    _00129_DS_
0000BA EF?? F0??      01342         GOTO    _00130_DS_
0000BE EF?? F0??      01343         GOTO    _00131_DS_
0000C2 EF?? F0??      01344         GOTO    _00142_DS_
0000C6 EF?? F0??      01345         GOTO    _00142_DS_
0000CA EF?? F0??      01346         GOTO    _00132_DS_
0000CE EF?? F0??      01347         GOTO    _00133_DS_
0000D2 EF?? F0??      01348         GOTO    _00134_DS_
0000D6 EF?? F0??      01349         GOTO    _00135_DS_
0000DA EF?? F0??      01350         GOTO    _00136_DS_
gpasm-1.4.0 #1107 (May  9 2015) build/sdcc/pr   12-2-2016  23:01:31         PAGE 29


LOC    OBJECT CODE    LINE  SOURCE TEXT
  VALUE

0000DE EF?? F0??      01351         GOTO    _00137_DS_
0000E2 EF?? F0??      01352         GOTO    _00138_DS_
0000E6 EF?? F0??      01353         GOTO    _00139_DS_
0000EA                01354 _00105_DS_:
                      01355         .line   13; ../../../RF24_c/utility/XC8/spi.c   case 2: TRISAbits.RA0=mode; break;
0000EA 50??           01356         MOVF    r0x01, W
0000EC 0B01           01357         ANDLW   0x01
Message[1301]: Using default destination of 0 (Access Bank).
0000EE 6EF4           01358         MOVWF   PRODH
0000F0 50??           01359         MOVF    _TRISAbits, W
0000F2 0BFE           01360         ANDLW   0xfe
0000F4 10F4           01361         IORWF   PRODH, W
Message[1301]: Using default destination of 0 (Access Bank).
0000F6 6E??           01362         MOVWF   _TRISAbits
0000F8 D???           01363         BRA     _00142_DS_
0000FA                01364 _00106_DS_:
                      01365         .line   14; ../../../RF24_c/utility/XC8/spi.c   case 3: TRISAbits.RA1=mode; break;
0000FA 50??           01366         MOVF    r0x01, W
0000FC 0B01           01367         ANDLW   0x01
0000FE 44E8           01368         RLNCF   WREG, W
Message[1301]: Using default destination of 0 (Access Bank).
000100 6EF4           01369         MOVWF   PRODH
000102 50??           01370         MOVF    _TRISAbits, W
000104 0BFD           01371         ANDLW   0xfd
000106 10F4           01372         IORWF   PRODH, W
Message[1301]: Using default destination of 0 (Access Bank).
000108 6E??           01373         MOVWF   _TRISAbits
00010A D???           01374         BRA     _00142_DS_
00010C                01375 _00107_DS_:
                      01376         .line   15; ../../../RF24_c/utility/XC8/spi.c   case 4: TRISAbits.RA2=mode; break;
00010C 50??           01377         MOVF    r0x01, W
00010E 0B01           01378         ANDLW   0x01
000110 44E8           01379         RLNCF   WREG, W
000112 44E8           01380         RLNCF   WREG, W
Message[1301]: Using default destination of 0 (Access Bank).
000114 6EF4           01381         MOVWF   PRODH
000116 50??           01382         MOVF    _TRISAbits, W
000118 0BFB           01383         ANDLW   0xfb
00011A 10F4           01384         IORWF   PRODH, W
Message[1301]: Using default destination of 0 (Access Bank).
00011C 6E??           01385         MOVWF   _TRISAbits
00011E D???           01386         BRA     _00142_DS_
000120                01387 _00108_DS_:
                      01388         .line   16; ../../../RF24_c/utility/XC8/spi.c   case 5: TRISAbits.RA3=mode; break;
000120 50??           01389         MOVF    r0x01, W
000122 0B01           01390         ANDLW   0x01
000124 38E8           01391         SWAPF   WREG, W
000126 40E8           01392         RRNCF   WREG, W
Message[1301]: Using default destination of 0 (Access Bank).
000128 6EF4           01393         MOVWF   PRODH
00012A 50??           01394         MOVF    _TRISAbits, W
00012C 0BF7           01395         ANDLW   0xf7
00012E 10F4           01396         IORWF   PRODH, W
gpasm-1.4.0 #1107 (May  9 2015) build/sdcc/pr   12-2-2016  23:01:31         PAGE 30


LOC    OBJECT CODE    LINE  SOURCE TEXT
  VALUE

Message[1301]: Using default destination of 0 (Access Bank).
000130 6E??           01397         MOVWF   _TRISAbits
000132 D???           01398         BRA     _00142_DS_
000134                01399 _00109_DS_:
                      01400         .line   17; ../../../RF24_c/utility/XC8/spi.c   case 6: TRISAbits.RA4=mode; break;
000134 50??           01401         MOVF    r0x01, W
000136 0B01           01402         ANDLW   0x01
000138 38E8           01403         SWAPF   WREG, W
Message[1301]: Using default destination of 0 (Access Bank).
00013A 6EF4           01404         MOVWF   PRODH
00013C 50??           01405         MOVF    _TRISAbits, W
00013E 0BEF           01406         ANDLW   0xef
000140 10F4           01407         IORWF   PRODH, W
Message[1301]: Using default destination of 0 (Access Bank).
000142 6E??           01408         MOVWF   _TRISAbits
000144 D???           01409         BRA     _00142_DS_
000146                01410 _00110_DS_:
                      01411         .line   18; ../../../RF24_c/utility/XC8/spi.c   case 7: TRISAbits.RA5=mode; break;
000146 50??           01412         MOVF    r0x01, W
000148 0B01           01413         ANDLW   0x01
00014A 38E8           01414         SWAPF   WREG, W
00014C 44E8           01415         RLNCF   WREG, W
Message[1301]: Using default destination of 0 (Access Bank).
00014E 6EF4           01416         MOVWF   PRODH
000150 50??           01417         MOVF    _TRISAbits, W
000152 0BDF           01418         ANDLW   0xdf
000154 10F4           01419         IORWF   PRODH, W
Message[1301]: Using default destination of 0 (Access Bank).
000156 6E??           01420         MOVWF   _TRISAbits
000158 D???           01421         BRA     _00142_DS_
00015A                01422 _00111_DS_:
                      01423         .line   19; ../../../RF24_c/utility/XC8/spi.c   case 8: TRISEbits.RE0=mode; break;
00015A 50??           01424         MOVF    r0x01, W
00015C 0B01           01425         ANDLW   0x01
Message[1301]: Using default destination of 0 (Access Bank).
00015E 6EF4           01426         MOVWF   PRODH
000160 50??           01427         MOVF    _TRISEbits, W
000162 0BFE           01428         ANDLW   0xfe
000164 10F4           01429         IORWF   PRODH, W
Message[1301]: Using default destination of 0 (Access Bank).
000166 6E??           01430         MOVWF   _TRISEbits
000168 D???           01431         BRA     _00142_DS_
00016A                01432 _00112_DS_:
                      01433         .line   20; ../../../RF24_c/utility/XC8/spi.c   case 9: TRISEbits.RE1=mode; break;
00016A 50??           01434         MOVF    r0x01, W
00016C 0B01           01435         ANDLW   0x01
00016E 44E8           01436         RLNCF   WREG, W
Message[1301]: Using default destination of 0 (Access Bank).
000170 6EF4           01437         MOVWF   PRODH
000172 50??           01438         MOVF    _TRISEbits, W
000174 0BFD           01439         ANDLW   0xfd
000176 10F4           01440         IORWF   PRODH, W
Message[1301]: Using default destination of 0 (Access Bank).
gpasm-1.4.0 #1107 (May  9 2015) build/sdcc/pr   12-2-2016  23:01:31         PAGE 31


LOC    OBJECT CODE    LINE  SOURCE TEXT
  VALUE

000178 6E??           01441         MOVWF   _TRISEbits
00017A D???           01442         BRA     _00142_DS_
00017C                01443 _00113_DS_:
                      01444         .line   21; ../../../RF24_c/utility/XC8/spi.c   case 10: TRISEbits.RE2=mode; break;
00017C 50??           01445         MOVF    r0x01, W
00017E 0B01           01446         ANDLW   0x01
000180 44E8           01447         RLNCF   WREG, W
000182 44E8           01448         RLNCF   WREG, W
Message[1301]: Using default destination of 0 (Access Bank).
000184 6EF4           01449         MOVWF   PRODH
000186 50??           01450         MOVF    _TRISEbits, W
000188 0BFB           01451         ANDLW   0xfb
00018A 10F4           01452         IORWF   PRODH, W
Message[1301]: Using default destination of 0 (Access Bank).
00018C 6E??           01453         MOVWF   _TRISEbits
00018E D???           01454         BRA     _00142_DS_
000190                01455 _00114_DS_:
                      01456         .line   25; ../../../RF24_c/utility/XC8/spi.c   case 13: TRISAbits.RA7=mode; break;
000190 50??           01457         MOVF    r0x01, W
000192 0B01           01458         ANDLW   0x01
000194 40E8           01459         RRNCF   WREG, W
Message[1301]: Using default destination of 0 (Access Bank).
000196 6EF4           01460         MOVWF   PRODH
000198 50??           01461         MOVF    _TRISAbits, W
00019A 0B7F           01462         ANDLW   0x7f
00019C 10F4           01463         IORWF   PRODH, W
Message[1301]: Using default destination of 0 (Access Bank).
00019E 6E??           01464         MOVWF   _TRISAbits
0001A0 D???           01465         BRA     _00142_DS_
0001A2                01466 _00115_DS_:
                      01467         .line   27; ../../../RF24_c/utility/XC8/spi.c   case 14: TRISAbits.RA6=mode; break;
0001A2 50??           01468         MOVF    r0x01, W
0001A4 0B01           01469         ANDLW   0x01
0001A6 40E8           01470         RRNCF   WREG, W
0001A8 40E8           01471         RRNCF   WREG, W
Message[1301]: Using default destination of 0 (Access Bank).
0001AA 6EF4           01472         MOVWF   PRODH
0001AC 50??           01473         MOVF    _TRISAbits, W
0001AE 0BBF           01474         ANDLW   0xbf
0001B0 10F4           01475         IORWF   PRODH, W
Message[1301]: Using default destination of 0 (Access Bank).
0001B2 6E??           01476         MOVWF   _TRISAbits
0001B4 D???           01477         BRA     _00142_DS_
0001B6                01478 _00116_DS_:
                      01479         .line   28; ../../../RF24_c/utility/XC8/spi.c   case 15: TRISCbits.RC0=mode; break;
0001B6 50??           01480         MOVF    r0x01, W
0001B8 0B01           01481         ANDLW   0x01
Message[1301]: Using default destination of 0 (Access Bank).
0001BA 6EF4           01482         MOVWF   PRODH
0001BC 50??           01483         MOVF    _TRISCbits, W
0001BE 0BFE           01484         ANDLW   0xfe
0001C0 10F4           01485         IORWF   PRODH, W
Message[1301]: Using default destination of 0 (Access Bank).
gpasm-1.4.0 #1107 (May  9 2015) build/sdcc/pr   12-2-2016  23:01:31         PAGE 32


LOC    OBJECT CODE    LINE  SOURCE TEXT
  VALUE

0001C2 6E??           01486         MOVWF   _TRISCbits
0001C4 D???           01487         BRA     _00142_DS_
0001C6                01488 _00117_DS_:
                      01489         .line   29; ../../../RF24_c/utility/XC8/spi.c   case 16: TRISCbits.RC1=mode; break;
0001C6 50??           01490         MOVF    r0x01, W
0001C8 0B01           01491         ANDLW   0x01
0001CA 44E8           01492         RLNCF   WREG, W
Message[1301]: Using default destination of 0 (Access Bank).
0001CC 6EF4           01493         MOVWF   PRODH
0001CE 50??           01494         MOVF    _TRISCbits, W
0001D0 0BFD           01495         ANDLW   0xfd
0001D2 10F4           01496         IORWF   PRODH, W
Message[1301]: Using default destination of 0 (Access Bank).
0001D4 6E??           01497         MOVWF   _TRISCbits
0001D6 D???           01498         BRA     _00142_DS_
0001D8                01499 _00118_DS_:
                      01500         .line   30; ../../../RF24_c/utility/XC8/spi.c   case 17: TRISCbits.RC2=mode; break;
0001D8 50??           01501         MOVF    r0x01, W
0001DA 0B01           01502         ANDLW   0x01
0001DC 44E8           01503         RLNCF   WREG, W
0001DE 44E8           01504         RLNCF   WREG, W
Message[1301]: Using default destination of 0 (Access Bank).
0001E0 6EF4           01505         MOVWF   PRODH
0001E2 50??           01506         MOVF    _TRISCbits, W
0001E4 0BFB           01507         ANDLW   0xfb
0001E6 10F4           01508         IORWF   PRODH, W
Message[1301]: Using default destination of 0 (Access Bank).
0001E8 6E??           01509         MOVWF   _TRISCbits
0001EA D???           01510         BRA     _00142_DS_
0001EC                01511 _00119_DS_:
                      01512         .line   32; ../../../RF24_c/utility/XC8/spi.c   case 18: TRISCbits.RC3=mode; break;
0001EC 50??           01513         MOVF    r0x01, W
0001EE 0B01           01514         ANDLW   0x01
0001F0 38E8           01515         SWAPF   WREG, W
0001F2 40E8           01516         RRNCF   WREG, W
Message[1301]: Using default destination of 0 (Access Bank).
0001F4 6EF4           01517         MOVWF   PRODH
0001F6 50??           01518         MOVF    _TRISCbits, W
0001F8 0BF7           01519         ANDLW   0xf7
0001FA 10F4           01520         IORWF   PRODH, W
Message[1301]: Using default destination of 0 (Access Bank).
0001FC 6E??           01521         MOVWF   _TRISCbits
0001FE D???           01522         BRA     _00142_DS_
000200                01523 _00120_DS_:
                      01524         .line   34; ../../../RF24_c/utility/XC8/spi.c   case 19: TRISDbits.RD0=mode; break;
000200 50??           01525         MOVF    r0x01, W
000202 0B01           01526         ANDLW   0x01
Message[1301]: Using default destination of 0 (Access Bank).
000204 6EF4           01527         MOVWF   PRODH
000206 50??           01528         MOVF    _TRISDbits, W
000208 0BFE           01529         ANDLW   0xfe
00020A 10F4           01530         IORWF   PRODH, W
Message[1301]: Using default destination of 0 (Access Bank).
gpasm-1.4.0 #1107 (May  9 2015) build/sdcc/pr   12-2-2016  23:01:31         PAGE 33


LOC    OBJECT CODE    LINE  SOURCE TEXT
  VALUE

00020C 6E??           01531         MOVWF   _TRISDbits
00020E D???           01532         BRA     _00142_DS_
000210                01533 _00121_DS_:
                      01534         .line   35; ../../../RF24_c/utility/XC8/spi.c   case 20: TRISDbits.RD1=mode; break;
000210 50??           01535         MOVF    r0x01, W
000212 0B01           01536         ANDLW   0x01
000214 44E8           01537         RLNCF   WREG, W
Message[1301]: Using default destination of 0 (Access Bank).
000216 6EF4           01538         MOVWF   PRODH
000218 50??           01539         MOVF    _TRISDbits, W
00021A 0BFD           01540         ANDLW   0xfd
00021C 10F4           01541         IORWF   PRODH, W
Message[1301]: Using default destination of 0 (Access Bank).
00021E 6E??           01542         MOVWF   _TRISDbits
000220 D???           01543         BRA     _00142_DS_
000222                01544 _00122_DS_:
                      01545         .line   36; ../../../RF24_c/utility/XC8/spi.c   case 21: TRISDbits.RD2=mode; break;
000222 50??           01546         MOVF    r0x01, W
000224 0B01           01547         ANDLW   0x01
000226 44E8           01548         RLNCF   WREG, W
000228 44E8           01549         RLNCF   WREG, W
Message[1301]: Using default destination of 0 (Access Bank).
00022A 6EF4           01550         MOVWF   PRODH
00022C 50??           01551         MOVF    _TRISDbits, W
00022E 0BFB           01552         ANDLW   0xfb
000230 10F4           01553         IORWF   PRODH, W
Message[1301]: Using default destination of 0 (Access Bank).
000232 6E??           01554         MOVWF   _TRISDbits
000234 D???           01555         BRA     _00142_DS_
000236                01556 _00123_DS_:
                      01557         .line   37; ../../../RF24_c/utility/XC8/spi.c   case 22: TRISDbits.RD3=mode; break;
000236 50??           01558         MOVF    r0x01, W
000238 0B01           01559         ANDLW   0x01
00023A 38E8           01560         SWAPF   WREG, W
00023C 40E8           01561         RRNCF   WREG, W
Message[1301]: Using default destination of 0 (Access Bank).
00023E 6EF4           01562         MOVWF   PRODH
000240 50??           01563         MOVF    _TRISDbits, W
000242 0BF7           01564         ANDLW   0xf7
000244 10F4           01565         IORWF   PRODH, W
Message[1301]: Using default destination of 0 (Access Bank).
000246 6E??           01566         MOVWF   _TRISDbits
000248 D???           01567         BRA     _00142_DS_
00024A                01568 _00124_DS_:
                      01569         .line   39; ../../../RF24_c/utility/XC8/spi.c   case 23: TRISCbits.RC4=mode; break;
00024A 50??           01570         MOVF    r0x01, W
00024C 0B01           01571         ANDLW   0x01
00024E 38E8           01572         SWAPF   WREG, W
Message[1301]: Using default destination of 0 (Access Bank).
000250 6EF4           01573         MOVWF   PRODH
000252 50??           01574         MOVF    _TRISCbits, W
000254 0BEF           01575         ANDLW   0xef
000256 10F4           01576         IORWF   PRODH, W
gpasm-1.4.0 #1107 (May  9 2015) build/sdcc/pr   12-2-2016  23:01:31         PAGE 34


LOC    OBJECT CODE    LINE  SOURCE TEXT
  VALUE

Message[1301]: Using default destination of 0 (Access Bank).
000258 6E??           01577         MOVWF   _TRISCbits
00025A D???           01578         BRA     _00142_DS_
00025C                01579 _00125_DS_:
                      01580         .line   40; ../../../RF24_c/utility/XC8/spi.c   case 24: TRISCbits.RC5=mode; break; 
00025C 50??           01581         MOVF    r0x01, W
00025E 0B01           01582         ANDLW   0x01
000260 38E8           01583         SWAPF   WREG, W
000262 44E8           01584         RLNCF   WREG, W
Message[1301]: Using default destination of 0 (Access Bank).
000264 6EF4           01585         MOVWF   PRODH
000266 50??           01586         MOVF    _TRISCbits, W
000268 0BDF           01587         ANDLW   0xdf
00026A 10F4           01588         IORWF   PRODH, W
Message[1301]: Using default destination of 0 (Access Bank).
00026C 6E??           01589         MOVWF   _TRISCbits
00026E D???           01590         BRA     _00142_DS_
000270                01591 _00126_DS_:
                      01592         .line   42; ../../../RF24_c/utility/XC8/spi.c   case 25: TRISCbits.RC6=mode; break;
000270 50??           01593         MOVF    r0x01, W
000272 0B01           01594         ANDLW   0x01
000274 40E8           01595         RRNCF   WREG, W
000276 40E8           01596         RRNCF   WREG, W
Message[1301]: Using default destination of 0 (Access Bank).
000278 6EF4           01597         MOVWF   PRODH
00027A 50??           01598         MOVF    _TRISCbits, W
00027C 0BBF           01599         ANDLW   0xbf
00027E 10F4           01600         IORWF   PRODH, W
Message[1301]: Using default destination of 0 (Access Bank).
000280 6E??           01601         MOVWF   _TRISCbits
000282 D???           01602         BRA     _00142_DS_
000284                01603 _00127_DS_:
                      01604         .line   43; ../../../RF24_c/utility/XC8/spi.c   case 26: TRISCbits.RC7=mode; break;
000284 50??           01605         MOVF    r0x01, W
000286 0B01           01606         ANDLW   0x01
000288 40E8           01607         RRNCF   WREG, W
Message[1301]: Using default destination of 0 (Access Bank).
00028A 6EF4           01608         MOVWF   PRODH
00028C 50??           01609         MOVF    _TRISCbits, W
00028E 0B7F           01610         ANDLW   0x7f
000290 10F4           01611         IORWF   PRODH, W
Message[1301]: Using default destination of 0 (Access Bank).
000292 6E??           01612         MOVWF   _TRISCbits
000294 D???           01613         BRA     _00142_DS_
000296                01614 _00128_DS_:
                      01615         .line   44; ../../../RF24_c/utility/XC8/spi.c   case 27: TRISDbits.RD4=mode; break;
000296 50??           01616         MOVF    r0x01, W
000298 0B01           01617         ANDLW   0x01
00029A 38E8           01618         SWAPF   WREG, W
Message[1301]: Using default destination of 0 (Access Bank).
00029C 6EF4           01619         MOVWF   PRODH
00029E 50??           01620         MOVF    _TRISDbits, W
0002A0 0BEF           01621         ANDLW   0xef
gpasm-1.4.0 #1107 (May  9 2015) build/sdcc/pr   12-2-2016  23:01:31         PAGE 35


LOC    OBJECT CODE    LINE  SOURCE TEXT
  VALUE

0002A2 10F4           01622         IORWF   PRODH, W
Message[1301]: Using default destination of 0 (Access Bank).
0002A4 6E??           01623         MOVWF   _TRISDbits
0002A6 D???           01624         BRA     _00142_DS_
0002A8                01625 _00129_DS_:
                      01626         .line   45; ../../../RF24_c/utility/XC8/spi.c   case 28: TRISDbits.RD5=mode; break;
0002A8 50??           01627         MOVF    r0x01, W
0002AA 0B01           01628         ANDLW   0x01
0002AC 38E8           01629         SWAPF   WREG, W
0002AE 44E8           01630         RLNCF   WREG, W
Message[1301]: Using default destination of 0 (Access Bank).
0002B0 6EF4           01631         MOVWF   PRODH
0002B2 50??           01632         MOVF    _TRISDbits, W
0002B4 0BDF           01633         ANDLW   0xdf
0002B6 10F4           01634         IORWF   PRODH, W
Message[1301]: Using default destination of 0 (Access Bank).
0002B8 6E??           01635         MOVWF   _TRISDbits
0002BA D???           01636         BRA     _00142_DS_
0002BC                01637 _00130_DS_:
                      01638         .line   46; ../../../RF24_c/utility/XC8/spi.c   case 29: TRISDbits.RD6=mode; break;
0002BC 50??           01639         MOVF    r0x01, W
0002BE 0B01           01640         ANDLW   0x01
0002C0 40E8           01641         RRNCF   WREG, W
0002C2 40E8           01642         RRNCF   WREG, W
Message[1301]: Using default destination of 0 (Access Bank).
0002C4 6EF4           01643         MOVWF   PRODH
0002C6 50??           01644         MOVF    _TRISDbits, W
0002C8 0BBF           01645         ANDLW   0xbf
0002CA 10F4           01646         IORWF   PRODH, W
Message[1301]: Using default destination of 0 (Access Bank).
0002CC 6E??           01647         MOVWF   _TRISDbits
0002CE D???           01648         BRA     _00142_DS_
0002D0                01649 _00131_DS_:
                      01650         .line   47; ../../../RF24_c/utility/XC8/spi.c   case 30: TRISDbits.RD7=mode; break;
0002D0 50??           01651         MOVF    r0x01, W
0002D2 0B01           01652         ANDLW   0x01
0002D4 40E8           01653         RRNCF   WREG, W
Message[1301]: Using default destination of 0 (Access Bank).
0002D6 6EF4           01654         MOVWF   PRODH
0002D8 50??           01655         MOVF    _TRISDbits, W
0002DA 0B7F           01656         ANDLW   0x7f
0002DC 10F4           01657         IORWF   PRODH, W
Message[1301]: Using default destination of 0 (Access Bank).
0002DE 6E??           01658         MOVWF   _TRISDbits
0002E0 D???           01659         BRA     _00142_DS_
0002E2                01660 _00132_DS_:
                      01661         .line   50; ../../../RF24_c/utility/XC8/spi.c   case 33: TRISBbits.RB0=mode; break;
0002E2 50??           01662         MOVF    r0x01, W
0002E4 0B01           01663         ANDLW   0x01
Message[1301]: Using default destination of 0 (Access Bank).
0002E6 6EF4           01664         MOVWF   PRODH
0002E8 50??           01665         MOVF    _TRISBbits, W
0002EA 0BFE           01666         ANDLW   0xfe
gpasm-1.4.0 #1107 (May  9 2015) build/sdcc/pr   12-2-2016  23:01:31         PAGE 36


LOC    OBJECT CODE    LINE  SOURCE TEXT
  VALUE

0002EC 10F4           01667         IORWF   PRODH, W
Message[1301]: Using default destination of 0 (Access Bank).
0002EE 6E??           01668         MOVWF   _TRISBbits
0002F0 D???           01669         BRA     _00142_DS_
0002F2                01670 _00133_DS_:
                      01671         .line   51; ../../../RF24_c/utility/XC8/spi.c   case 34: TRISBbits.RB1=mode; break;
0002F2 50??           01672         MOVF    r0x01, W
0002F4 0B01           01673         ANDLW   0x01
0002F6 44E8           01674         RLNCF   WREG, W
Message[1301]: Using default destination of 0 (Access Bank).
0002F8 6EF4           01675         MOVWF   PRODH
0002FA 50??           01676         MOVF    _TRISBbits, W
0002FC 0BFD           01677         ANDLW   0xfd
0002FE 10F4           01678         IORWF   PRODH, W
Message[1301]: Using default destination of 0 (Access Bank).
000300 6E??           01679         MOVWF   _TRISBbits
000302 D???           01680         BRA     _00142_DS_
000304                01681 _00134_DS_:
                      01682         .line   52; ../../../RF24_c/utility/XC8/spi.c   case 35: TRISBbits.RB2=mode; break;
000304 50??           01683         MOVF    r0x01, W
000306 0B01           01684         ANDLW   0x01
000308 44E8           01685         RLNCF   WREG, W
00030A 44E8           01686         RLNCF   WREG, W
Message[1301]: Using default destination of 0 (Access Bank).
00030C 6EF4           01687         MOVWF   PRODH
00030E 50??           01688         MOVF    _TRISBbits, W
000310 0BFB           01689         ANDLW   0xfb
000312 10F4           01690         IORWF   PRODH, W
Message[1301]: Using default destination of 0 (Access Bank).
000314 6E??           01691         MOVWF   _TRISBbits
000316 D???           01692         BRA     _00142_DS_
000318                01693 _00135_DS_:
                      01694         .line   53; ../../../RF24_c/utility/XC8/spi.c   case 36: TRISBbits.RB3=mode; break;
000318 50??           01695         MOVF    r0x01, W
00031A 0B01           01696         ANDLW   0x01
00031C 38E8           01697         SWAPF   WREG, W
00031E 40E8           01698         RRNCF   WREG, W
Message[1301]: Using default destination of 0 (Access Bank).
000320 6EF4           01699         MOVWF   PRODH
000322 50??           01700         MOVF    _TRISBbits, W
000324 0BF7           01701         ANDLW   0xf7
000326 10F4           01702         IORWF   PRODH, W
Message[1301]: Using default destination of 0 (Access Bank).
000328 6E??           01703         MOVWF   _TRISBbits
00032A D???           01704         BRA     _00142_DS_
00032C                01705 _00136_DS_:
                      01706         .line   54; ../../../RF24_c/utility/XC8/spi.c   case 37: TRISBbits.RB4=mode; break;
00032C 50??           01707         MOVF    r0x01, W
00032E 0B01           01708         ANDLW   0x01
000330 38E8           01709         SWAPF   WREG, W
Message[1301]: Using default destination of 0 (Access Bank).
000332 6EF4           01710         MOVWF   PRODH
000334 50??           01711         MOVF    _TRISBbits, W
gpasm-1.4.0 #1107 (May  9 2015) build/sdcc/pr   12-2-2016  23:01:31         PAGE 37


LOC    OBJECT CODE    LINE  SOURCE TEXT
  VALUE

000336 0BEF           01712         ANDLW   0xef
000338 10F4           01713         IORWF   PRODH, W
Message[1301]: Using default destination of 0 (Access Bank).
00033A 6E??           01714         MOVWF   _TRISBbits
00033C D???           01715         BRA     _00142_DS_
00033E                01716 _00137_DS_:
                      01717         .line   55; ../../../RF24_c/utility/XC8/spi.c   case 38: TRISBbits.RB5=mode; break;
00033E 50??           01718         MOVF    r0x01, W
000340 0B01           01719         ANDLW   0x01
000342 38E8           01720         SWAPF   WREG, W
000344 44E8           01721         RLNCF   WREG, W
Message[1301]: Using default destination of 0 (Access Bank).
000346 6EF4           01722         MOVWF   PRODH
000348 50??           01723         MOVF    _TRISBbits, W
00034A 0BDF           01724         ANDLW   0xdf
00034C 10F4           01725         IORWF   PRODH, W
Message[1301]: Using default destination of 0 (Access Bank).
00034E 6E??           01726         MOVWF   _TRISBbits
000350 D???           01727         BRA     _00142_DS_
000352                01728 _00138_DS_:
                      01729         .line   56; ../../../RF24_c/utility/XC8/spi.c   case 39: TRISBbits.RB6=mode; break;
000352 50??           01730         MOVF    r0x01, W
000354 0B01           01731         ANDLW   0x01
000356 40E8           01732         RRNCF   WREG, W
000358 40E8           01733         RRNCF   WREG, W
Message[1301]: Using default destination of 0 (Access Bank).
00035A 6EF4           01734         MOVWF   PRODH
00035C 50??           01735         MOVF    _TRISBbits, W
00035E 0BBF           01736         ANDLW   0xbf
000360 10F4           01737         IORWF   PRODH, W
Message[1301]: Using default destination of 0 (Access Bank).
000362 6E??           01738         MOVWF   _TRISBbits
000364 D???           01739         BRA     _00142_DS_
000366                01740 _00139_DS_:
                      01741         .line   57; ../../../RF24_c/utility/XC8/spi.c   case 40: TRISBbits.RB7=mode; break;
000366 50??           01742         MOVF    r0x01, W
000368 0B01           01743         ANDLW   0x01
00036A 40E8           01744         RRNCF   WREG, W
Message[1301]: Using default destination of 0 (Access Bank).
00036C 6EF4           01745         MOVWF   PRODH
00036E 50??           01746         MOVF    _TRISBbits, W
000370 0B7F           01747         ANDLW   0x7f
000372 10F4           01748         IORWF   PRODH, W
Message[1301]: Using default destination of 0 (Access Bank).
000374 6E??           01749         MOVWF   _TRISBbits
000376                01750 _00142_DS_:
                      01751         .line   59; ../../../RF24_c/utility/XC8/spi.c   }
000376 CFE4 F000      01752         MOVFF   PREINC1, r0x01
00037A CFE4 F000      01753         MOVFF   PREINC1, r0x00
00037E CFE4 FFD9      01754         MOVFF   PREINC1, FSR2L
000382 0012           01755         RETURN  
                      01756 
                      01757 
gpasm-1.4.0 #1107 (May  9 2015) build/sdcc/pr   12-2-2016  23:01:31         PAGE 38


LOC    OBJECT CODE    LINE  SOURCE TEXT
  VALUE

                      01758 
                      01759 ; Statistics:
                      01760 ; code size:     2894 (0x0b4e) bytes ( 2.21%)
                      01761 ;                1447 (0x05a7) words
                      01762 ; udata size:       4 (0x0004) bytes ( 0.10%)
                      01763 ; access size:      8 (0x0008) bytes
                      01764 
                      01765 
                      01766         end
gpasm-1.4.0 #1107 (May  9 2015) build/sdcc/pr   12-2-2016  23:01:31         PAGE 39


SYMBOL TABLE
  LABEL                             VALUE

FSR0L                             00000FE9
FSR1L                             00000FE1
FSR2L                             00000FD9
PCL                               00000FF9
PCLATH                            00000FFA
PCLATU                            00000FFB
PLUSW2                            00000FDB
POSTDEC1                          00000FE5
PREINC1                           00000FE4
PRODH                             00000FF4
PRODL                             00000FF3
STATUS                            00000FD8
WREG                              00000FE8
_00105_DS_                        000000EA
_00106_DS_                        000000FA
_00107_DS_                        0000010C
_00108_DS_                        00000120
_00109_DS_                        00000134
_00110_DS_                        00000146
_00111_DS_                        0000015A
_00112_DS_                        0000016A
_00113_DS_                        0000017C
_00114_DS_                        00000190
_00115_DS_                        000001A2
_00116_DS_                        000001B6
_00117_DS_                        000001C6
_00118_DS_                        000001D8
_00119_DS_                        000001EC
_00120_DS_                        00000200
_00121_DS_                        00000210
_00122_DS_                        00000222
_00123_DS_                        00000236
_00124_DS_                        0000024A
_00125_DS_                        0000025C
_00126_DS_                        00000270
_00127_DS_                        00000284
_00128_DS_                        00000296
_00129_DS_                        000002A8
_00130_DS_                        000002BC
_00131_DS_                        000002D0
_00132_DS_                        000002E2
_00133_DS_                        000002F2
_00134_DS_                        00000304
_00135_DS_                        00000318
_00136_DS_                        0000032C
_00137_DS_                        0000033E
_00138_DS_                        00000352
_00139_DS_                        00000366
_00142_DS_                        00000376
_00152_DS_                        0000004E
_00157_DS_                        000000EA
_00158_DS_                        000000FA
_00159_DS_                        0000010C
gpasm-1.4.0 #1107 (May  9 2015) build/sdcc/pr   12-2-2016  23:01:31         PAGE 40


SYMBOL TABLE
  LABEL                             VALUE 

_00160_DS_                        00000120
_00161_DS_                        00000134
_00162_DS_                        00000146
_00163_DS_                        0000015A
_00164_DS_                        0000016A
_00165_DS_                        0000017C
_00166_DS_                        00000190
_00167_DS_                        000001A2
_00168_DS_                        000001B6
_00169_DS_                        000001C6
_00170_DS_                        000001D8
_00171_DS_                        000001EC
_00172_DS_                        00000200
_00173_DS_                        00000210
_00174_DS_                        00000222
_00175_DS_                        00000236
_00176_DS_                        0000024A
_00177_DS_                        0000025C
_00178_DS_                        00000270
_00179_DS_                        00000284
_00180_DS_                        00000296
_00181_DS_                        000002A8
_00182_DS_                        000002BC
_00183_DS_                        000002D0
_00184_DS_                        000002E2
_00185_DS_                        000002F2
_00186_DS_                        00000304
_00187_DS_                        00000318
_00188_DS_                        0000032C
_00189_DS_                        0000033E
_00190_DS_                        00000352
_00191_DS_                        00000366
_00194_DS_                        00000376
_00204_DS_                        0000004E
_00209_DS_                        000000E8
_00210_DS_                        000000F4
_00211_DS_                        00000100
_00212_DS_                        0000010C
_00213_DS_                        00000118
_00214_DS_                        00000124
_00215_DS_                        00000130
_00216_DS_                        0000013C
_00217_DS_                        00000148
_00218_DS_                        00000154
_00219_DS_                        00000160
_00220_DS_                        0000016C
_00221_DS_                        00000178
_00222_DS_                        00000184
_00223_DS_                        00000190
_00224_DS_                        0000019C
_00225_DS_                        000001A8
_00226_DS_                        000001B4
_00227_DS_                        000001C0
gpasm-1.4.0 #1107 (May  9 2015) build/sdcc/pr   12-2-2016  23:01:31         PAGE 41


SYMBOL TABLE
  LABEL                             VALUE 

_00228_DS_                        000001CC
_00229_DS_                        000001D8
_00230_DS_                        000001E4
_00231_DS_                        000001F0
_00232_DS_                        000001FC
_00233_DS_                        00000208
_00234_DS_                        00000214
_00235_DS_                        00000220
_00236_DS_                        0000022C
_00237_DS_                        00000238
_00238_DS_                        00000244
_00239_DS_                        00000250
_00240_DS_                        0000025C
_00241_DS_                        00000268
_00242_DS_                        00000274
_00243_DS_                        00000280
_00244_DS_                        0000028C
_00246_DS_                        00000296
_00257_DS_                        00000048
_00271_DS_                        0000004C
_00273_DS_                        00000038
_00275_DS_                        00000080
_00290_DS_                        00000042
_00299_DS_                        00000046
_00301_DS_                        0000002E
_00303_DS_                        00000068
_00318_DS_                        0000003E
_00328_DS_                        00000018
_ADCON0                           00000000
_ADCON0bits                       00000000
_ADCON1                           00000000
_ADCON1bits                       00000000
_ADCON2                           00000000
_ADCON2bits                       00000000
_ADRES                            00000000
_ADRESH                           00000000
_ADRESL                           00000000
_BAUDCON                          00000000
_BAUDCONbits                      00000000
_BAUDCTL                          00000000
_BAUDCTLbits                      00000000
_BSR                              00000000
_CCP1CON                          00000000
_CCP1CONbits                      00000000
_CCP2CON                          00000000
_CCP2CONbits                      00000000
_CCPR1                            00000000
_CCPR1H                           00000000
_CCPR1L                           00000000
_CCPR2                            00000000
_CCPR2H                           00000000
_CCPR2L                           00000000
_CMCON                            00000000
gpasm-1.4.0 #1107 (May  9 2015) build/sdcc/pr   12-2-2016  23:01:31         PAGE 42


SYMBOL TABLE
  LABEL                             VALUE 

_CMCONbits                        00000000
_CVRCON                           00000000
_CVRCONbits                       00000000
_DDRA                             00000000
_DDRAbits                         00000000
_DDRB                             00000000
_DDRBbits                         00000000
_DDRC                             00000000
_DDRCbits                         00000000
_DDRD                             00000000
_DDRDbits                         00000000
_DDRE                             00000000
_DDREbits                         00000000
_ECCP1AS                          00000000
_ECCP1ASbits                      00000000
_EEADR                            00000000
_EEADRH                           00000000
_EECON1                           00000000
_EECON1bits                       00000000
_EECON2                           00000000
_EEDATA                           00000000
_FSR0H                            00000000
_FSR0L                            00000000
_FSR1H                            00000000
_FSR1L                            00000000
_FSR2H                            00000000
_FSR2L                            00000000
_HLVDCON                          00000000
_HLVDCONbits                      00000000
_INDF0                            00000000
_INDF1                            00000000
_INDF2                            00000000
_INTCON                           00000000
_INTCON2                          00000000
_INTCON2bits                      00000000
_INTCON3                          00000000
_INTCON3bits                      00000000
_INTCONbits                       00000000
_IPR1                             00000000
_IPR1bits                         00000000
_IPR2                             00000000
_IPR2bits                         00000000
_LATA                             00000000
_LATAbits                         00000000
_LATB                             00000000
_LATBbits                         00000000
_LATC                             00000000
_LATCbits                         00000000
_LATD                             00000000
_LATDbits                         00000000
_LATE                             00000000
_LATEbits                         00000000
_LVDCON                           00000000
gpasm-1.4.0 #1107 (May  9 2015) build/sdcc/pr   12-2-2016  23:01:31         PAGE 43


SYMBOL TABLE
  LABEL                             VALUE 

_LVDCONbits                       00000000
_OSCCON                           00000000
_OSCCONbits                       00000000
_OSCTUNE                          00000000
_OSCTUNEbits                      00000000
_PC                               00000000
_PCL                              00000000
_PCLATH                           00000000
_PCLATU                           00000000
_PIE1                             00000000
_PIE1bits                         00000000
_PIE2                             00000000
_PIE2bits                         00000000
_PIR1                             00000000
_PIR1bits                         00000000
_PIR2                             00000000
_PIR2bits                         00000000
_PLUSW0                           00000000
_PLUSW1                           00000000
_PLUSW2                           00000000
_PORTA                            00000000
_PORTAbits                        00000000
_PORTB                            00000000
_PORTBbits                        00000000
_PORTC                            00000000
_PORTCbits                        00000000
_PORTD                            00000000
_PORTDbits                        00000000
_PORTE                            00000000
_PORTEbits                        00000000
_POSTDEC0                         00000000
_POSTDEC1                         00000000
_POSTDEC2                         00000000
_POSTINC0                         00000000
_POSTINC1                         00000000
_POSTINC2                         00000000
_PR2                              00000000
_PREINC0                          00000000
_PREINC1                          00000000
_PREINC2                          00000000
_PROD                             00000000
_PRODH                            00000000
_PRODL                            00000000
_PWM1CON                          00000000
_PWM1CONbits                      00000000
_RCON                             00000000
_RCONbits                         00000000
_RCREG                            00000000
_RCSTA                            00000000
_RCSTAbits                        00000000
_SPBRG                            00000000
_SPBRGH                           00000000
_SPI_begin                        00000000
gpasm-1.4.0 #1107 (May  9 2015) build/sdcc/pr   12-2-2016  23:01:31         PAGE 44


SYMBOL TABLE
  LABEL                             VALUE 

_SPI_transfer                     00000000
_SSPADD                           00000000
_SSPBUF                           00000000
_SSPCON1                          00000000
_SSPCON1bits                      00000000
_SSPCON2                          00000000
_SSPCON2bits                      00000000
_SSPSTAT                          00000000
_SSPSTATbits                      00000000
_STATUS                           00000000
_STATUSbits                       00000000
_STKPTR                           00000000
_STKPTRbits                       00000000
_T0CON                            00000000
_T0CONbits                        00000000
_T1CON                            00000000
_T1CONbits                        00000000
_T2CON                            00000000
_T2CONbits                        00000000
_T3CON                            00000000
_T3CONbits                        00000000
_TABLAT                           00000000
_TBLPTR                           00000000
_TBLPTRH                          00000000
_TBLPTRL                          00000000
_TBLPTRU                          00000000
_TMR0                             00000000
_TMR0H                            00000000
_TMR0L                            00000000
_TMR1                             00000000
_TMR1H                            00000000
_TMR1L                            00000000
_TMR2                             00000000
_TMR3                             00000000
_TMR3H                            00000000
_TMR3L                            00000000
_TOS                              00000000
_TOSH                             00000000
_TOSL                             00000000
_TOSU                             00000000
_TRISA                            00000000
_TRISAbits                        00000000
_TRISB                            00000000
_TRISBbits                        00000000
_TRISC                            00000000
_TRISCbits                        00000000
_TRISD                            00000000
_TRISDbits                        00000000
_TRISE                            00000000
_TRISEbits                        00000000
_TXREG                            00000000
_TXSTA                            00000000
_TXSTAbits                        00000000
gpasm-1.4.0 #1107 (May  9 2015) build/sdcc/pr   12-2-2016  23:01:31         PAGE 45


SYMBOL TABLE
  LABEL                             VALUE 

_WDTCON                           00000000
_WDTCONbits                       00000000
_WREG                             00000000
__18F4620                         00000001
__ACC_RAM_LOW_END                 0000007F
__CODE_END                        0000FFFF
__CODE_START                      00000000
__EEPROM_END                      00F003FF
__EEPROM_START                    00F00000
__VECTOR_INT_HIGH                 00000008
__VECTOR_INT_LOW                  00000018
__VECTOR_RESET                    00000000
_delay                            00000000
_delayMicroseconds                00000000
_digitalRead                      00000000
_digitalWrite                     00000000
_millis                           00000000
_mtime                            00000000
_pinMode                          00000000
_stdin                            00000000
_stdout                           00000000
r0x00                             00000000
r0x01                             00000001
r0x02                             00000002
r0x03                             00000003
r0x04                             00000004
r0x05                             00000005
r0x06                             00000006
r0x07                             00000007

Errors   :     0
Warnings :     0 reported,     0 suppressed
Messages :   203 reported,     0 suppressed

