Microchip MPLAB XC8 Compiler V1.38 ()

Linker command line:

-W-3 --edf=/opt/microchip/xc8/v1.38/dat/en_msgs.txt -cs \
  -h+dist/xc8/production/InteractiveServer_Mesh.X.production.sym \
  --cmf=dist/xc8/production/InteractiveServer_Mesh.X.production.cmf -z \
  -Q18F4620 -o/tmp/xcXx6nclS \
  -Mdist/xc8/production/InteractiveServer_Mesh.X.production.map -E1 \
  -ver=XC8 -ASTACK=07CEh-0f7fh -pstack=STACK -ACODE=00h-0FFFFh \
  -ACONST=00h-0FFFFh -ASMALLCONST=01000h-010FFhx240 \
  -AMEDIUMCONST=01000h-0FFFFh -ACOMRAM=01h-07Fh -AABS1=00h-0F7Fh \
  -ABIGRAM=01h-0F7Fh -ARAM=080h-0FFh,0100h-01FFhx14,0F00h-0F7Fh \
  -ABANK0=080h-0FFh -ABANK1=0100h-01FFh -ABANK2=0200h-02FFh \
  -ABANK3=0300h-03FFh -ABANK4=0400h-04FFh -ABANK5=0500h-05FFh \
  -ABANK6=0600h-06FFh -ABANK7=0700h-07FFh -ABANK8=0800h-08FFh \
  -ABANK9=0900h-09FFh -ABANK10=0A00h-0AFFh -ABANK11=0B00h-0BFFh \
  -ABANK12=0C00h-0CFFh -ABANK13=0D00h-0DFFh -ABANK14=0E00h-0EFFh \
  -ABANK15=0F00h-0F7Fh -ASFR=0F80h-0FFFh \
  -preset_vec=00h,intcode=08h,intcodelo,powerup,init,end_init \
  -pramtop=01000h -psmallconst=SMALLCONST -pmediumconst=MEDIUMCONST \
  -pconst=CONST -AFARRAM=00h-00h -ACONFIG=0300000h-030000Dh -pconfig=CONFIG \
  -AIDLOC=0200000h-0200007h -pidloc=IDLOC -AEEDATA=0F00000h-0F003FFh \
  -peeprom_data=EEDATA \
  -prdata=COMRAM,nvrram=COMRAM,nvbit=COMRAM,rbss=COMRAM,rbit=COMRAM \
  -pfarbss=FARRAM,fardata=FARRAM,nvFARRAM=FARRAM \
  -pintsave_regs=BIGRAM,bigbss=BIGRAM,bigdata=BIGRAM -pbss=RAM \
  -pidata=CODE,irdata=CODE,ibigdata=CODE,ifardata=CODE -prparam=COMRAM \
  /tmp/xcX7nF5L6.obj \
  dist/xc8/production/InteractiveServer_Mesh.X.production.obj 

Object code version is 3.11

Machine type is 18F4620

Call graph: (short form)




                Name                               Link     Load   Length Selector   Space Scale
/tmp/xcX7nF5L6.obj
                stack                               7CE      7CE      7B2      7CE       2
                end_init                             18       18        4        4       0
                init                                 14       14        4        4       0
                reset_vec                             0        0        4        0       0
                idloc                            200000   200000        8   200000       0
                config                           300000   300000        E   300000       0
dist/xc8/production/InteractiveServer_Mesh.X.production.obj
                intcode                               8        8        C        4       0
                temp                                 70       70        C        1       1
                mediumconst                        F5A0     F5A0      A60     7AD0       0
                intcode_body                       9C12     9C12       2C        4       0
                text156                            5B6E     5B6E      316        4       0
                text155                            4046     4046      552        4       0
                text154                            9392     9392       56        4       0
                text153                            8166     8166       BC        4       0
                text152                            8F66     8F66       6A        4       0
                text151                            933A     933A       58        4       0
                text150                            9602     9602       4A        4       0
                text149                            9FCA     9FCA       12        4       0
                text148                            9E22     9E22       20        4       0
                text147                            9E60     9E60       1E        4       0
                text146                            9A8A     9A8A       36        4       0
                text145                            9ED2     9ED2       1C        4       0
                text144                            94D8     94D8       4C        4       0
                text143                            9B26     9B26       32        4       0
                text142                            9D76     9D76       26        4       0
                text141                            A092     A092        8        4       0
                text140                            9EB6     9EB6       1C        4       0
                text139                            98F8     98F8       40        4       0
                text138                            66C0     66C0      27E        4       0
                text137                            7700     7700      11E        4       0
                text136                            9F22     9F22       18        4       0
                text135                            A08A     A08A        8        4       0
                text134                            A082     A082        8        4       0
                text133                            9FFC     9FFC       10        4       0
                text132                            9AC0     9AC0       34        4       0
                text131                            86FE     86FE       94        4       0
                text130                            9A54     9A54       36        4       0
                text129                            9BE4     9BE4       2E        4       0
                text128                            9100     9100       64        4       0
                text127                            7A06     7A06       E2        4       0
                text126                            93E8     93E8       52        4       0
                text125                            9224     9224       5E        4       0
                text124                            3AD2     3AD2      574        4       0
                text123                            9DE0     9DE0       22        4       0
                text122                            8D38     8D38       76        4       0
                text121                            9E9A     9E9A       1C        4       0
                text120                            A07A     A07A        8        4       0
                text119                            99E6     99E6       38        4       0
                text118                            98B8     98B8       40        4       0
                text117                            99AE     99AE       38        4       0
                text116                            97AE     97AE       46        4       0
                text115                            A072     A072        8        4       0
                text114                            9F7C     9F7C       16        4       0
                text113                            893E     893E       86        4       0
                text112                            8792     8792       92        4       0
                text111                            8BCA     8BCA       7C        4       0
                text110                            9878     9878       40        4       0
                text109                            7E52     7E52       D6        4       0
                text108                            9836     9836       42        4       0
                text107                            9D50     9D50       26        4       0
                text106                            5E84     5E84      312        4       0
                text105                            9C3E     9C3E       2A        4       0
                text104                            95B8     95B8       4A        4       0
                text103                            A050     A050        A        4       0
                text102                            9F66     9F66       16        4       0
                text101                            8DAE     8DAE       72        4       0
                text100                            9A1E     9A1E       36        4       0
                text99                             82DC     82DC       BA        4       0
                text98                             9768     9768       46        4       0
                text97                             2CCA     2CCA      E08        4       0
                text96                             85B2     85B2       B2        4       0
                text95                             9036     9036       66        4       0
                text94                             8222     8222       BA        4       0
                text93                             9FB8     9FB8       12        4       0
                text92                             9694     9694       48        4       0
                text91                             80AA     80AA       BC        4       0
                text90                             9FEC     9FEC       10        4       0
                text89                               1C       1C     1BEC        4       0
                text88                             7FEC     7FEC       BE        4       0
                text87                             9F08     9F08       1A        4       0
                text86                             4598     4598      49E        4       0
                text85                             9D2A     9D2A       26        4       0
                text84                             8824     8824       8E        4       0
                text83                             89C4     89C4       84        4       0
                text82                             5814     5814      35A        4       0
                text81                             8500     8500       B2        4       0
                text80                             91C6     91C6       5E        4       0
                text79                             964C     964C       48        4       0
                text78                             8CC0     8CC0       78        4       0
                text77                             74A2     74A2      134        4       0
                text76                             8ACA     8ACA       82        4       0
                text75                             9E02     9E02       20        4       0
                text74                             9E7E     9E7E       1C        4       0
                text73                             7D7A     7D7A       D8        4       0
                text72                             A046     A046        A        4       0
                text71                             6FE8     6FE8      20E        4       0
                text70                             6B88     6B88      234        4       0
                text69                             A03C     A03C        A        4       0
                text68                             92DE     92DE       5C        4       0
                text67                             9DBE     9DBE       22        4       0
                text66                             7F28     7F28       C4        4       0
                text65                             6DBC     6DBC      22C        4       0
                text64                             A06A     A06A        8        4       0
                text63                             A032     A032        A        4       0
                text62                             8396     8396       B8        4       0
                text61                             7BC6     7BC6       DC        4       0
                text60                             9C90     9C90       28        4       0
                text59                             75D6     75D6      12A        4       0
                text58                             9D04     9D04       26        4       0
                text57                             9D9C     9D9C       22        4       0
                text56                             7CA2     7CA2       D8        4       0
                text55                             9FDC     9FDC       10        4       0
                text54                             909C     909C       64        4       0
                text53                             4DBC     4DBC      37E        4       0
                text52                             A026     A026        C        4       0
                text51                             A00C     A00C        E        4       0
                text50                             8E20     8E20       70        4       0
                text49                             71F6     71F6      16A        4       0
                text48                             4A36     4A36      386        4       0
                text47                             9CDE     9CDE       26        4       0
                text46                             943A     943A       50        4       0
                text45                             9722     9722       46        4       0
                text44                             A01A     A01A        C        4       0
                text43                             8B4C     8B4C       7E        4       0
                text42                             9C68     9C68       28        4       0
                text41                             8A48     8A48       82        4       0
                text40                             8FD0     8FD0       66        4       0
                text39                             781E     781E       F6        4       0
                text38                             9BB6     9BB6       2E        4       0
                text37                             6196     6196      2AC        4       0
                text36                             9B88     9B88       2E        4       0
                text35                             9E42     9E42       1E        4       0
                text34                             A0A8     A0A8        2     5051       0
                text33                             1C08     1C08     10C2        4       0
                text32                             97F4     97F4       42        4       0
                text31                             7360     7360      142        4       0
                text30                             9164     9164       62        4       0
                text29                             513A     513A      37A        4       0
                text28                             956E     956E       4A        4       0
                text27                             693E     693E      24A        4       0
                text26                             9524     9524       4A        4       0
                text25                             9FA6     9FA6       12        4       0
                text24                             9F50     9F50       16        4       0
                text23                             A062     A062        8        4       0
                text22                             9974     9974       3A        4       0
                text21                             8E90     8E90       6C        4       0
                text20                             54B4     54B4      360        4       0
                text19                             9CB8     9CB8       26        4       0
                text18                             9B58     9B58       30        4       0
                text17                             948A     948A       4E        4       0
                text16                             96DC     96DC       46        4       0
                text15                             A0A6     A0A6        2     5051       0
                text14                             7914     7914       F2        4       0
                text13                             A0A4     A0A4        2     5051       0
                text12                             A05A     A05A        8        4       0
                text11                             8EFC     8EFC       6A        4       0
                text10                             9F3A     9F3A       16        4       0
                text9                              9EEE     9EEE       1A        4       0
                text8                              6442     6442      27E        4       0
                text7                              7AE8     7AE8       DE        4       0
                text6                              88B2     88B2       8C        4       0
                text5                              A0A2     A0A2        2     5051       0
                text4                              9282     9282       5C        4       0
                text3                              9938     9938       3C        4       0
                text2                              8C46     8C46       7A        4       0
                text1                              844E     844E       B2        4       0
                text0                              9AF4     9AF4       32        4       0
                cstackCOMRAM                          1        1       6F        1       1
                cstackBANK0                          80       80       6E       80       1
                cstackBANK1                         18C      18C       6D      100       1
                cstackBANK2                         2F6      2F6        6      200       1
                bssBIGRAM                           4EA      4EA      2E4      4EA       1
                bssBANK4                            400      400       EA      400       1
                bssBANK3                            300      300       BC      300       1
                dataBANK2                           2E2      2E2       14      200       1
                bssBANK2                            200      200       E2      200       1
                dataBANK1                           1F9      1F9        7      100       1
                bssBANK1                            100      100       8C      100       1
                bssBANK0                             EE       EE        F       80       1
                bssCOMRAM                            7C       7C        2        1       1
                cinit                              8664     8664       9A        4       0
                idataBANK2                         9F92     9F92       14        4       0
                idataBANK1                         A09A     A09A        7        4       0

TOTAL           Name                               Link     Load   Length     Space
        CLASS   STACK          
                stack                               7CE      7CE      7B2         2

        CLASS   CODE           
                end_init                             18       18        4         0
                init                                 14       14        4         0
                intcode                               8        8        C         0
                reset_vec                             0        0        4         0
                intcode_body                       9C12     9C12       2C         0
                text156                            5B6E     5B6E      316         0
                text155                            4046     4046      552         0
                text154                            9392     9392       56         0
                text153                            8166     8166       BC         0
                text152                            8F66     8F66       6A         0
                text151                            933A     933A       58         0
                text150                            9602     9602       4A         0
                text149                            9FCA     9FCA       12         0
                text148                            9E22     9E22       20         0
                text147                            9E60     9E60       1E         0
                text146                            9A8A     9A8A       36         0
                text145                            9ED2     9ED2       1C         0
                text144                            94D8     94D8       4C         0
                text143                            9B26     9B26       32         0
                text142                            9D76     9D76       26         0
                text141                            A092     A092        8         0
                text140                            9EB6     9EB6       1C         0
                text139                            98F8     98F8       40         0
                text138                            66C0     66C0      27E         0
                text137                            7700     7700      11E         0
                text136                            9F22     9F22       18         0
                text135                            A08A     A08A        8         0
                text134                            A082     A082        8         0
                text133                            9FFC     9FFC       10         0
                text132                            9AC0     9AC0       34         0
                text131                            86FE     86FE       94         0
                text130                            9A54     9A54       36         0
                text129                            9BE4     9BE4       2E         0
                text128                            9100     9100       64         0
                text127                            7A06     7A06       E2         0
                text126                            93E8     93E8       52         0
                text125                            9224     9224       5E         0
                text124                            3AD2     3AD2      574         0
                text123                            9DE0     9DE0       22         0
                text122                            8D38     8D38       76         0
                text121                            9E9A     9E9A       1C         0
                text120                            A07A     A07A        8         0
                text119                            99E6     99E6       38         0
                text118                            98B8     98B8       40         0
                text117                            99AE     99AE       38         0
                text116                            97AE     97AE       46         0
                text115                            A072     A072        8         0
                text114                            9F7C     9F7C       16         0
                text113                            893E     893E       86         0
                text112                            8792     8792       92         0
                text111                            8BCA     8BCA       7C         0
                text110                            9878     9878       40         0
                text109                            7E52     7E52       D6         0
                text108                            9836     9836       42         0
                text107                            9D50     9D50       26         0
                text106                            5E84     5E84      312         0
                text105                            9C3E     9C3E       2A         0
                text104                            95B8     95B8       4A         0
                text103                            A050     A050        A         0
                text102                            9F66     9F66       16         0
                text101                            8DAE     8DAE       72         0
                text100                            9A1E     9A1E       36         0
                text99                             82DC     82DC       BA         0
                text98                             9768     9768       46         0
                text97                             2CCA     2CCA      E08         0
                text96                             85B2     85B2       B2         0
                text95                             9036     9036       66         0
                text94                             8222     8222       BA         0
                text93                             9FB8     9FB8       12         0
                text92                             9694     9694       48         0
                text91                             80AA     80AA       BC         0
                text90                             9FEC     9FEC       10         0
                text89                               1C       1C     1BEC         0
                text88                             7FEC     7FEC       BE         0
                text87                             9F08     9F08       1A         0
                text86                             4598     4598      49E         0
                text85                             9D2A     9D2A       26         0
                text84                             8824     8824       8E         0
                text83                             89C4     89C4       84         0
                text82                             5814     5814      35A         0
                text81                             8500     8500       B2         0
                text80                             91C6     91C6       5E         0
                text79                             964C     964C       48         0
                text78                             8CC0     8CC0       78         0
                text77                             74A2     74A2      134         0
                text76                             8ACA     8ACA       82         0
                text75                             9E02     9E02       20         0
                text74                             9E7E     9E7E       1C         0
                text73                             7D7A     7D7A       D8         0
                text72                             A046     A046        A         0
                text71                             6FE8     6FE8      20E         0
                text70                             6B88     6B88      234         0
                text69                             A03C     A03C        A         0
                text68                             92DE     92DE       5C         0
                text67                             9DBE     9DBE       22         0
                text66                             7F28     7F28       C4         0
                text65                             6DBC     6DBC      22C         0
                text64                             A06A     A06A        8         0
                text63                             A032     A032        A         0
                text62                             8396     8396       B8         0
                text61                             7BC6     7BC6       DC         0
                text60                             9C90     9C90       28         0
                text59                             75D6     75D6      12A         0
                text58                             9D04     9D04       26         0
                text57                             9D9C     9D9C       22         0
                text56                             7CA2     7CA2       D8         0
                text55                             9FDC     9FDC       10         0
                text54                             909C     909C       64         0
                text53                             4DBC     4DBC      37E         0
                text52                             A026     A026        C         0
                text51                             A00C     A00C        E         0
                text50                             8E20     8E20       70         0
                text49                             71F6     71F6      16A         0
                text48                             4A36     4A36      386         0
                text47                             9CDE     9CDE       26         0
                text46                             943A     943A       50         0
                text45                             9722     9722       46         0
                text44                             A01A     A01A        C         0
                text43                             8B4C     8B4C       7E         0
                text42                             9C68     9C68       28         0
                text41                             8A48     8A48       82         0
                text40                             8FD0     8FD0       66         0
                text39                             781E     781E       F6         0
                text38                             9BB6     9BB6       2E         0
                text37                             6196     6196      2AC         0
                text36                             9B88     9B88       2E         0
                text35                             9E42     9E42       1E         0
                text34                             A0A8     A0A8        2         0
                text33                             1C08     1C08     10C2         0
                text32                             97F4     97F4       42         0
                text31                             7360     7360      142         0
                text30                             9164     9164       62         0
                text29                             513A     513A      37A         0
                text28                             956E     956E       4A         0
                text27                             693E     693E      24A         0
                text26                             9524     9524       4A         0
                text25                             9FA6     9FA6       12         0
                text24                             9F50     9F50       16         0
                text23                             A062     A062        8         0
                text22                             9974     9974       3A         0
                text21                             8E90     8E90       6C         0
                text20                             54B4     54B4      360         0
                text19                             9CB8     9CB8       26         0
                text18                             9B58     9B58       30         0
                text17                             948A     948A       4E         0
                text16                             96DC     96DC       46         0
                text15                             A0A6     A0A6        2         0
                text14                             7914     7914       F2         0
                text13                             A0A4     A0A4        2         0
                text12                             A05A     A05A        8         0
                text11                             8EFC     8EFC       6A         0
                text10                             9F3A     9F3A       16         0
                text9                              9EEE     9EEE       1A         0
                text8                              6442     6442      27E         0
                text7                              7AE8     7AE8       DE         0
                text6                              88B2     88B2       8C         0
                text5                              A0A2     A0A2        2         0
                text4                              9282     9282       5C         0
                text3                              9938     9938       3C         0
                text2                              8C46     8C46       7A         0
                text1                              844E     844E       B2         0
                text0                              9AF4     9AF4       32         0
                cinit                              8664     8664       9A         0
                idataBANK2                         9F92     9F92       14         0
                idataBANK1                         A09A     A09A        7         0

        CLASS   CONST          

        CLASS   SMALLCONST     

        CLASS   MEDIUMCONST    
                mediumconst                        F5A0     F5A0      A60         0

        CLASS   COMRAM         
                temp                                 70       70        C         1
                cstackCOMRAM                          1        1       6F         1
                bssCOMRAM                            7C       7C        2         1

        CLASS   ABS1           

        CLASS   BIGRAM         
                bssBIGRAM                           4EA      4EA      2E4         1

        CLASS   RAM            

        CLASS   BANK0          
                cstackBANK0                          80       80       6E         1
                bssBANK0                             EE       EE        F         1

        CLASS   BANK1          
                cstackBANK1                         18C      18C       6D         1
                dataBANK1                           1F9      1F9        7         1
                bssBANK1                            100      100       8C         1

        CLASS   BANK2          
                cstackBANK2                         2F6      2F6        6         1
                dataBANK2                           2E2      2E2       14         1
                bssBANK2                            200      200       E2         1

        CLASS   BANK3          
                bssBANK3                            300      300       BC         1

        CLASS   BANK4          
                bssBANK4                            400      400       EA         1

        CLASS   BANK5          

        CLASS   BANK6          

        CLASS   BANK7          

        CLASS   BANK8          

        CLASS   BANK9          

        CLASS   BANK10         

        CLASS   BANK11         

        CLASS   BANK12         

        CLASS   BANK13         

        CLASS   BANK14         

        CLASS   BANK15         

        CLASS   SFR            

        CLASS   FARRAM         

        CLASS   CONFIG         
                config                           300000   300000        E         0

        CLASS   IDLOC          
                idloc                            200000   200000        8         0

        CLASS   EEDATA         



SEGMENTS        Name                           Load    Length   Top    Selector   Space  Class

                reset_vec                      000000  000004  000004         0       0  CODE    
                cstackCOMRAM                   000001  00007D  00007E         1       1  COMRAM  
                intcode                        000008  00A099  00A0A1         4       0  CODE    
                cstackBANK0                    000080  00007D  0000FD        80       1  BANK0   
                bssBANK1                       000100  000100  000200       100       1  BANK1   
                bssBANK2                       000200  0000FC  0002FC       200       1  BANK2   
                bssBANK3                       000300  0000BC  0003BC       300       1  BANK3   
                bssBANK4                       000400  0000EA  0004EA       400       1  BANK4   
                bssBIGRAM                      0004EA  0002E4  0007CE       4EA       1  BIGRAM  
                stack                          0007CE  0007B2  000F80       7CE       2  STACK   
                text5                          00A0A2  000008  00A0AA      5051       0  CODE    
                mediumconst                    00F5A0  000A60  010000      7AD0       0  MEDIUMCO
                idloc                          200000  000008  200008    200000       0  IDLOC   
                config                         300000  00000E  30000E    300000       0  CONFIG  


UNUSED ADDRESS RANGES

        Name                Unused          Largest block    Delta
        BANK0            0000FD-0000FF                3
        BANK10           000A00-000AFF              100
        BANK11           000B00-000BFF              100
        BANK12           000C00-000CFF              100
        BANK13           000D00-000DFF              100
        BANK14           000E00-000EFF              100
        BANK15           000F00-000F7F               80
        BANK2            0002FC-0002FF                4
        BANK3            0003BC-0003FF               44
        BANK7            0007CE-0007FF               32
        BANK8            000800-0008FF              100
        BANK9            000900-0009FF              100
        BIGRAM           00007E-00007F                2
                         0000FD-0000FF                3
                         0002FC-0002FF                4
                         0003BC-0003FF               44
                         0007CE-000F7F              7B2
        CODE             000004-000007                4
                         00A0A1-00A0A1                1
                         00A0AA-00F59F             54F6
        COMRAM           00007E-00007F                2
        CONST            000004-000007                4
                         00A0A1-00A0A1                1
                         00A0AA-00F59F             54F6
        EEDATA           F00000-F003FF              400
        MEDIUMCONST      00A0A1-00A0A1                1
                         00A0AA-00F59F             54F6
        RAM              0000FD-0000FF                3
                         0002FC-0002FF                4
                         0003BC-0003FF               44
                         0007CE-000F7F              100
        SFR              000F80-000FFF               80
        SMALLCONST       00A0A1-00A0A1                1
                         00A0AA-00F59F              100

                                  Symbol Table

?_RF24EC__allocateData                                  cstackCOMRAM 000003
?_RF24EC__available                                     cstackCOMRAM 000003
?_RF24EC__write                                         cstackBANK0  000090
?_RF24EC_available                                      cstackBANK0  000090
?_RF24EC_findMulti                                      cstackCOMRAM 00002B
?_RF24EC_read                                           cstackCOMRAM 00001C
?_RF24EC_read_b                                         cstackCOMRAM 000010
?_RF24EC_timedRead                                      cstackCOMRAM 00001F
?_RF24EC_valid                                          cstackBANK0  000090
?_RF24EC_write                                          cstackBANK0  0000A2
?_RF24M_getAddress                                      cstackBANK0  0000A4
?_RF24M_getNodeID                                       cstackBANK0  000087
?_RF24M_renewAddress                                    cstackBANK0  0000C7
?_RF24N_direct_child_route_to                           cstackCOMRAM 000003
?_RF24N_getFrag_ptr                                     cstackCOMRAM 000003
?_RF24N_getFrame_buffer                                 cstackCOMRAM 000003
?_RF24N_levelToAddress                                  cstackCOMRAM 000003
?___awdiv                                               cstackCOMRAM 000003
?___awmod                                               cstackCOMRAM 000003
?___lldiv                                               cstackCOMRAM 000007
?___llmod                                               cstackCOMRAM 000014
?___lwdiv                                               cstackCOMRAM 000003
?___lwmod                                               cstackCOMRAM 000003
?___wmul                                                cstackCOMRAM 000003
?__doprnt                                               cstackCOMRAM 00001D
?_chksum                                                cstackCOMRAM 000003
?_clock_time                                            cstackCOMRAM 000007
?_htons                                                 cstackCOMRAM 000003
?_itoa_                                                 cstackCOMRAM 00002A
?_malloc                                                cstackCOMRAM 000003
?_millis                                                cstackCOMRAM 000003
?_realloc                                               cstackCOMRAM 00000C
?_sprintf                                               cstackCOMRAM 000041
?_strcmp                                                cstackCOMRAM 000003
?_strlen                                                cstackBANK0  0000A6
?_timer_expired                                         cstackCOMRAM 00000B
?_uip_ipchksum                                          cstackCOMRAM 000013
?_uip_tcpchksum                                         cstackCOMRAM 00001E
?_upper_layer_chksum                                    cstackCOMRAM 000013
RF24EC__allocateData@data                               cstackCOMRAM 000006
RF24EC__allocateData@sock                               cstackCOMRAM 000005
RF24EC__available@u                                     cstackCOMRAM 000003
RF24EC__write@buf                                       cstackBANK0  000092
RF24EC__write@payloadSize                               cstackBANK0  0000A0
RF24EC__write@remain                                    cstackBANK0  00009C
RF24EC__write@size                                      cstackBANK0  000094
RF24EC__write@total_written                             cstackBANK0  00009E
RF24EC__write@u                                         cstackBANK0  000090
RF24EC_findMulti@c                                      cstackCOMRAM 000042
RF24EC_findMulti@diff                                   cstackCOMRAM 000040
RF24EC_findMulti@i                                      cstackCOMRAM 000044
RF24EC_findMulti@origIndex                              cstackCOMRAM 00003E
RF24EC_findMulti@t                                      cstackCOMRAM 000046
RF24EC_findMulti@tCount                                 cstackCOMRAM 00002D
RF24EC_findMulti@targets                                cstackCOMRAM 00002B
RF24EC_findUntil@target                                 cstackBANK0  0000AA
RF24EC_findUntil@terminator                             cstackBANK0  0000AC
RF24EC_findUntil_f@t                                    cstackCOMRAM 00005F
RF24EC_findUntil_f@t_4271                               cstackCOMRAM 000051
RF24EC_findUntil_f@target                               cstackCOMRAM 000048
RF24EC_findUntil_f@targetLen                            cstackCOMRAM 00004A
RF24EC_findUntil_f@termLen                              cstackCOMRAM 00004F
RF24EC_findUntil_f@terminator                           cstackCOMRAM 00004C
RF24EC_init_d@conn_data                                 cstackCOMRAM 000003
RF24EC_read@c                                           cstackCOMRAM 00001E
RF24EC_read_b@buf                                       cstackCOMRAM 000010
RF24EC_read_b@size                                      cstackCOMRAM 000012
RF24EC_timedRead@c                                      cstackCOMRAM 000029
RF24EC_write@buf                                        cstackBANK0  0000A2
RF24EC_write@size                                       cstackBANK0  0000A4
RF24EC_write_s@str                                      cstackBANK0  0000AA
RF24ES_available@data                                   cstackBANK0  000090
RF24ES_init@port                                        cstackCOMRAM 000008
RF24E_begin_i@dns                                       cstackCOMRAM 000041
RF24E_begin_i@ip                                        cstackCOMRAM 00003F
RF24E_begin_id@dns                                      cstackCOMRAM 000039
RF24E_begin_id@gateway                                  cstackCOMRAM 00003B
RF24E_begin_id@ip                                       cstackCOMRAM 000037
RF24E_begin_idg@dns                                     cstackCOMRAM 00002F
RF24E_begin_idg@gateway                                 cstackCOMRAM 000031
RF24E_begin_idg@ip                                      cstackCOMRAM 00002D
RF24E_begin_idg@subnet                                  cstackCOMRAM 000033
RF24E_begin_idgs@dns                                    cstackCOMRAM 000027
RF24E_begin_idgs@gateway                                cstackCOMRAM 000029
RF24E_begin_idgs@ip                                     cstackCOMRAM 000025
RF24E_begin_idgs@subnet                                 cstackCOMRAM 00002B
RF24E_configure@dns                                     cstackCOMRAM 000013
RF24E_configure@gateway                                 cstackCOMRAM 000015
RF24E_configure@ip                                      cstackCOMRAM 000011
RF24E_configure@ipaddr                                  cstackCOMRAM 000021
RF24E_configure@subnet                                  cstackCOMRAM 000017
RF24E_gatewayIP@ret                                     bssBANK1     000180
RF24E_localIP@ret                                       bssBANK1     000184
RF24E_network_send@headerOut                            cstackBANK0  000088
RF24E_network_send@ok                                   cstackBANK0  000087
RF24E_set_gateway@gwIP                                  cstackCOMRAM 000003
RF24E_set_gateway@ipaddr                                cstackCOMRAM 00000D
RF24E_subnetMask@ret                                    bssBANK1     000188
RF24E_tick@i                                            cstackCOMRAM 00006B
RF24M_begin@channel                                     cstackCOMRAM 00006D
RF24M_begin@data_rate                                   cstackBANK0  0000D9
RF24M_begin@timeout                                     cstackBANK0  0000DA
RF24M_checkConnection@count                             cstackBANK0  0000D6
RF24M_checkConnection@header                            cstackBANK0  0000D8
RF24M_checkConnection@ok                                cstackBANK0  0000D7
RF24M_getAddress@address                                cstackBANK0  0000B7
RF24M_getAddress@header                                 cstackBANK0  0000B9
RF24M_getAddress@i                                      cstackBANK0  0000B6
RF24M_getAddress@nodeID                                 cstackBANK0  0000C1
RF24M_getAddress@timeout                                cstackBANK0  0000B2
RF24M_getAddress@timer                                  cstackBANK0  0000AE
RF24M_getNodeID@ID                                      cstackBANK0  000099
RF24M_getNodeID@address                                 cstackBANK0  000087
RF24M_getNodeID@header                                  cstackBANK0  00009C
RF24M_getNodeID@i                                       cstackBANK0  00009B
RF24M_getNodeID@timeout                                 cstackBANK0  000095
RF24M_getNodeID@timer                                   cstackBANK0  000091
RF24M_renewAddress@reqCounter                           cstackBANK0  0000D8
RF24M_renewAddress@start                                cstackBANK0  0000D3
RF24M_renewAddress@timeout                              cstackBANK0  0000C7
RF24M_renewAddress@totalReqs                            cstackBANK0  0000D7
RF24M_requestAddress@contactNode                        cstackBANK0  0000AC
RF24M_requestAddress@header                             cstackBANK0  0000BF
RF24M_requestAddress@i                                  cstackBANK0  0000BD
RF24M_requestAddress@level                              cstackBANK0  0000B4
RF24M_requestAddress@newAddress                         cstackBANK0  0000BB
RF24M_requestAddress@pollCount                          cstackBANK0  0000BE
RF24M_requestAddress@registerAddrCount                  cstackBANK0  0000B5
RF24M_requestAddress@timr                               cstackBANK0  0000B7
RF24M_requestAddress@type                               cstackBANK0  0000B6
RF24M_setAddress@address                                cstackCOMRAM 000010
RF24M_setAddress@i                                      cstackCOMRAM 000016
RF24M_setAddress@nodeID                                 cstackCOMRAM 000014
RF24M_setAddress@position                               cstackCOMRAM 000015
RF24M_setNodeID@nodeID                                  cstackCOMRAM 000003
RF24M_update@fromAddr                                   cstackBANK0  0000C8
RF24M_update@header                                     cstackBANK0  0000D3
RF24M_update@header_3834                                cstackBANK0  0000CA
RF24M_update@i                                          cstackBANK0  0000D2
RF24M_update@returnAddr                                 cstackBANK0  0000CE
RF24M_update@returnAddr_3829                            cstackBANK0  0000D0
RF24M_update@type                                       cstackBANK0  0000D5
RF24Mesh_cg@mesh                                        bssBANK1     000100
RF24NH_init@_to                                         cstackCOMRAM 000005
RF24NH_init@_type                                       cstackCOMRAM 000007
RF24NH_init@rnh                                         cstackCOMRAM 000003
RF24N__write@header                                     cstackCOMRAM 000045
RF24N__write@len                                        cstackCOMRAM 00004A
RF24N__write@message                                    cstackCOMRAM 000047
RF24N__write@sendType                                   cstackCOMRAM 000050
RF24N__write@writeDirect                                cstackCOMRAM 00004C
RF24N_begin@_node_address                               cstackCOMRAM 00002F
RF24N_begin_d@_channel                                  cstackCOMRAM 00002D
RF24N_begin_d@_node_address                             cstackCOMRAM 000025
RF24N_begin_d@addr                                      cstackCOMRAM 000027
RF24N_begin_d@i                                         cstackCOMRAM 00002E
RF24N_begin_d@retryVar                                  cstackCOMRAM 00002C
RF24N_direct_child_route_to@child_mask                  cstackCOMRAM 000009
RF24N_direct_child_route_to@node                        cstackCOMRAM 000003
RF24N_enqueue@header                                    cstackCOMRAM 00001C
RF24N_enqueue@isFragment                                cstackCOMRAM 00002C
RF24N_enqueue@message_size                              cstackCOMRAM 000031
RF24N_enqueue@padding                                   cstackCOMRAM 00002D
RF24N_enqueue@padding_3568                              cstackCOMRAM 00002E
RF24N_enqueue@result                                    cstackCOMRAM 000030
RF24N_is_descendant@node                                cstackCOMRAM 000003
RF24N_is_direct_child@child_node_mask                   cstackCOMRAM 000012
RF24N_is_direct_child@node                              cstackCOMRAM 000009
RF24N_is_direct_child@result                            cstackCOMRAM 000014
RF24N_is_valid_address@digit                            cstackCOMRAM 000007
RF24N_is_valid_address@node                             cstackCOMRAM 000003
RF24N_is_valid_address@result                           cstackCOMRAM 000008
RF24N_levelToAddress@level                              cstackCOMRAM 00000B
RF24N_levelToAddress@levelAddr                          cstackCOMRAM 00000C
RF24N_logicalToPhysicalAddress@conversionInfo           cstackCOMRAM 000015
RF24N_logicalToPhysicalAddress@directTo                 cstackCOMRAM 000025
RF24N_logicalToPhysicalAddress@multicast                cstackCOMRAM 000021
RF24N_logicalToPhysicalAddress@pre_conversion_send_node cstackCOMRAM 000023
RF24N_logicalToPhysicalAddress@pre_conversion_send_pipe cstackCOMRAM 000027
RF24N_logicalToPhysicalAddress@to_node                  cstackCOMRAM 000028
RF24N_multicast@header                                  cstackBANK0  000080
RF24N_multicast@len                                     cstackBANK0  000085
RF24N_multicast@level                                   cstackBANK0  000087
RF24N_multicast@message                                 cstackBANK0  000082
RF24N_pipe_address@F3854                                dataBANK2    0002E9
RF24N_pipe_address@address                              cstackCOMRAM 000006
RF24N_pipe_address@address_translation                  dataBANK2    0002E2
RF24N_pipe_address@count                                cstackCOMRAM 00001E
RF24N_pipe_address@dec                                  cstackCOMRAM 00001C
RF24N_pipe_address@i                                    cstackCOMRAM 000021
RF24N_pipe_address@node                                 cstackCOMRAM 000003
RF24N_pipe_address@out                                  cstackCOMRAM 00001F
RF24N_pipe_address@pipe                                 cstackCOMRAM 000005
RF24N_pipe_address@result                               cstackCOMRAM 000017
RF24N_setNetworkFlags@nf                                cstackCOMRAM 000003
RF24N_setup_address@count                               cstackCOMRAM 000009
RF24N_setup_address@i                                   cstackCOMRAM 000005
RF24N_setup_address@m                                   cstackCOMRAM 000007
RF24N_setup_address@node_mask_check                     cstackCOMRAM 00000C
RF24N_setup_address@parent_mask                         cstackCOMRAM 00000A
RF24N_write_@fragmentLen                                cstackCOMRAM 000064
RF24N_write_@fragment_id                                cstackCOMRAM 00006A
RF24N_write_@header                                     cstackCOMRAM 000051
RF24N_write_@len                                        cstackCOMRAM 000056
RF24N_write_@message                                    cstackCOMRAM 000053
RF24N_write_@msgCount                                   cstackCOMRAM 000066
RF24N_write_@offset                                     cstackCOMRAM 000067
RF24N_write_@ok                                         cstackCOMRAM 000069
RF24N_write_@retriesPerFrag                             cstackCOMRAM 000062
RF24N_write_@type                                       cstackCOMRAM 000063
RF24N_write_@writeDirect                                cstackCOMRAM 000058
RF24N_write_m@header                                    cstackBANK0  000080
RF24N_write_m@len                                       cstackBANK0  000085
RF24N_write_m@message                                   cstackBANK0  000082
RF24N_write_to_pipe@multicast                           cstackCOMRAM 000038
RF24N_write_to_pipe@node                                cstackCOMRAM 000035
RF24N_write_to_pipe@ok                                  cstackCOMRAM 000044
RF24N_write_to_pipe@out_pipe                            cstackCOMRAM 00003F
RF24N_write_to_pipe@pipe                                cstackCOMRAM 000037
RF24_available_p@pipe_num                               cstackCOMRAM 000015
RF24_available_p@status                                 cstackCOMRAM 000019
RF24_begin@setup                                        cstackCOMRAM 00001F
RF24_ce_d@level                                         cstackCOMRAM 000007
RF24_closeReadingPipe@pipe                              cstackCOMRAM 00001E
RF24_csn_d@mode                                         cstackCOMRAM 000010
RF24_getDynamicPayloadSize@result                       cstackCOMRAM 000016
RF24_init@_cepin                                        cstackCOMRAM 000004
RF24_init@_cspin                                        cstackCOMRAM 000003
RF24_openReadingPipe_d@address                          cstackCOMRAM 00001E
RF24_openReadingPipe_d@address_                         cstackCOMRAM 00001A
RF24_openReadingPipe_d@child                            cstackCOMRAM 000024
RF24_openReadingPipe_d@i                                cstackCOMRAM 000023
RF24_openWritingPipe_d@i                                cstackCOMRAM 000029
RF24_openWritingPipe_d@value                            cstackCOMRAM 000024
RF24_openWritingPipe_d@value_                           cstackCOMRAM 00001A
RF24_powerUp@cfg                                        cstackCOMRAM 00001B
RF24_read@buf                                           cstackCOMRAM 000022
RF24_read@len                                           cstackCOMRAM 000024
RF24_read_payload@blank_len                             cstackCOMRAM 00001D
RF24_read_payload@buf                                   cstackCOMRAM 000011
RF24_read_payload@current                               cstackCOMRAM 00001E
RF24_read_payload@data_len                              cstackCOMRAM 000013
RF24_read_payload@status                                cstackCOMRAM 00001C
RF24_read_register_d@reg                                cstackCOMRAM 000013
RF24_read_register_d@result                             cstackCOMRAM 000014
RF24_setAutoAck_p@en_aa                                 cstackCOMRAM 00001F
RF24_setAutoAck_p@enable                                cstackCOMRAM 00001A
RF24_setAutoAck_p@pipe                                  cstackCOMRAM 000020
RF24_setChannel@channel                                 cstackCOMRAM 00001C
RF24_setChannel@max_channel                             cstackCOMRAM 00001D
RF24_setDataRate@result                                 cstackCOMRAM 00001A
RF24_setDataRate@setup                                  cstackCOMRAM 00001C
RF24_setDataRate@speed                                  cstackCOMRAM 00001B
RF24_setRetries@count                                   cstackCOMRAM 00001A
RF24_setRetries@delay                                   cstackCOMRAM 00001D
RF24_spiTrans@cmd                                       cstackCOMRAM 000013
RF24_spiTrans@status                                    cstackCOMRAM 000014
RF24_startFastWrite@buf                                 cstackCOMRAM 000027
RF24_startFastWrite@len                                 cstackCOMRAM 000029
RF24_startFastWrite@multicast                           cstackCOMRAM 00002A
RF24_startFastWrite@startTx                             cstackCOMRAM 00002B
RF24_txStandBy_t@start                                  cstackCOMRAM 00002D
RF24_txStandBy_t@startTx                                cstackCOMRAM 000020
RF24_txStandBy_t@timeout                                cstackCOMRAM 00001C
RF24_writeFast_m@buf                                    cstackCOMRAM 000030
RF24_writeFast_m@len                                    cstackCOMRAM 000032
RF24_writeFast_m@multicast                              cstackCOMRAM 000033
RF24_write_payload@blank_len                            cstackCOMRAM 000020
RF24_write_payload@buf                                  cstackCOMRAM 000011
RF24_write_payload@current                              cstackCOMRAM 000021
RF24_write_payload@data_len                             cstackCOMRAM 000013
RF24_write_payload@status                               cstackCOMRAM 00001F
RF24_write_payload@writeType                            cstackCOMRAM 000014
RF24_write_register_c_d@buf                             cstackCOMRAM 000011
RF24_write_register_c_d@len                             cstackCOMRAM 000013
RF24_write_register_c_d@reg                             cstackCOMRAM 000017
RF24_write_register_c_d@status                          cstackCOMRAM 000016
RF24_write_register_d@reg                               cstackCOMRAM 000018
RF24_write_register_d@status                            cstackCOMRAM 000019
RF24_write_register_d@value                             cstackCOMRAM 000015
SPI_transfer@data                                       cstackCOMRAM 000004
Serial_begin@baud                                       cstackCOMRAM 000014
Serial_print@i                                          cstackCOMRAM 000034
Serial_print@val                                        cstackCOMRAM 00002E
Serial_println@val                                      cstackCOMRAM 000036
Serial_tx@val                                           cstackCOMRAM 000003
_BAUDCONbits                                            (abs)        000FB8
_INTCONbits                                             (abs)        000FF2
_LATAbits                                               (abs)        000F89
_LATBbits                                               (abs)        000F8A
_LATCbits                                               (abs)        000F8B
_LATDbits                                               (abs)        000F8C
_LATEbits                                               (abs)        000F8D
_PIR1bits                                               (abs)        000F9E
_PORTAbits                                              (abs)        000F80
_PORTBbits                                              (abs)        000F81
_PORTCbits                                              (abs)        000F82
_PORTDbits                                              (abs)        000F83
_PORTEbits                                              (abs)        000F84
_RCREG                                                  (abs)        000FAE
_RCSTAbits                                              (abs)        000FAB
_RF24EC__allocateData                                   text99       0082DC
_RF24EC__available                                      text111      008BCA
_RF24EC__write                                          text48       004A36
_RF24EC_available                                       text87       009F08
_RF24EC_findMulti                                       text82       005814
_RF24EC_findUntil                                       text79       00964C
_RF24EC_findUntil_f                                     text81       008500
_RF24EC_flush                                           text78       008CC0
_RF24EC_init                                            text75       009E02
_RF24EC_init_d                                          text74       009E7E
_RF24EC_read                                            text85       009D2A
_RF24EC_read_b                                          text86       004598
_RF24EC_stop                                            text77       0074A2
_RF24EC_timedRead                                       text84       008824
_RF24EC_valid                                           text76       008ACA
_RF24EC_valid$4127                                      cstackCOMRAM 00006F
_RF24EC_write                                           text47       009CDE
_RF24EC_write_s                                         text36       009B88
_RF24ES_available                                       text73       007D7A
_RF24ES_begin                                           text25       009FA6
_RF24ES_init                                            text24       009F50
_RF24E__dnsServerAddress                                bssBANK1     000150
_RF24E_begin_i                                          text16       0096DC
_RF24E_begin_id                                         text17       00948A
_RF24E_begin_idg                                        text18       009B58
_RF24E_begin_idgs                                       text19       009CB8
_RF24E_configure                                        text20       0054B4
_RF24E_init                                             text15       00A0A6
_RF24E_network_send                                     text104      0095B8
_RF24E_set_gateway                                      text14       007914
_RF24E_tick                                             text88       007FEC
_RF24Ethernet                                           bssBANK2     000200
_RF24M_begin                                            text6        0088B2
_RF24M_checkConnection                                  text62       008396
_RF24M_getAddress                                       text70       006B88
_RF24M_getNodeID                                        text71       006FE8
_RF24M_init                                             text5        00A0A2
_RF24M_loadDHCP                                         text13       00A0A4
_RF24M_renewAddress                                     text49       0071F6
_RF24M_requestAddress                                   text53       004DBC
_RF24M_setAddress                                       text66       007F28
_RF24M_setNodeID                                        text23       00A062
_RF24M_update                                           text65       006DBC
_RF24M_update$5825                                      cstackBANK0  0000CC
_RF24NH_init                                            text110      009878
_RF24N__write                                           text109      007E52
_RF24N_available                                        text123      009DE0
_RF24N_begin                                            text55       009FDC
_RF24N_begin_d                                          text56       007CA2
_RF24N_direct_child_route_to                            text130      009A54
_RF24N_enqueue                                          text124      003AD2
_RF24N_enqueue$3566                                     cstackCOMRAM 00002F
_RF24N_getFrag_ptr                                      text103      00A050
_RF24N_getFrame_buffer                                  text72       00A046
_RF24N_getNetworkFlags                                  text64       00A06A
_RF24N_init                                             text4        009282
_RF24N_is_descendant                                    text129      009BE4
_RF24N_is_direct_child                                  text128      009100
_RF24N_is_valid_address                                 text146      009A8A
_RF24N_levelToAddress                                   text144      0094D8
_RF24N_logicalToPhysicalAddress                         text127      007A06
_RF24N_multicast                                        text54       00909C
_RF24N_multicast$5824                                   cstackCOMRAM 00006B
_RF24N_pipe_address                                     text137      007700
_RF24N_setNetworkFlags                                  text52       00A026
_RF24N_setReturnSysMsgs                                 text12       00A05A
_RF24N_setup_address                                    text61       007BC6
_RF24N_update                                           text155      004046
_RF24N_write                                            text156      005B6E
_RF24N_write_                                           text106      005E84
_RF24N_write_m                                          text105      009C3E
_RF24N_write_to_pipe                                    text131      0086FE
_RF24_available                                         text51       00A00C
_RF24_available_p                                       text143      009B26
_RF24_begin                                             text7        007AE8
_RF24_begin$3210                                        cstackCOMRAM 00001E
_RF24_beginTransaction                                  text135      00A08A
_RF24_ce_d                                              text140      009EB6
_RF24_closeReadingPipe                                  text116      0097AE
_RF24_csn_d                                             text136      009F22
_RF24_enableDynamicPayloads                             text60       009C90
_RF24_endTransaction                                    text134      00A082
_RF24_flush_rx                                          text120      00A07A
_RF24_flush_tx                                          text141      00A092
_RF24_getDynamicPayloadSize                             text119      0099E6
_RF24_get_status                                        text115      00A072
_RF24_init                                              text3        009938
_RF24_isValid                                           text145      009ED2
_RF24_isValid$3323                                      cstackCOMRAM 000004
_RF24_openReadingPipe_d                                 text59       0075D6
_RF24_openWritingPipe_d                                 text122      008D38
_RF24_powerUp                                           text142      009D76
_RF24_read                                              text121      009E9A
_RF24_read_payload                                      text113      00893E
_RF24_read_payload$3181                                 cstackCOMRAM 000020
_RF24_read_register_d                                   text147      009E60
_RF24_rxFifoFull                                        text63       00A032
_RF24_setAutoAck_p                                      text154      009392
_RF24_setChannel                                        text58       009D04
_RF24_setChannel$3196                                   cstackCOMRAM 00001A
_RF24_setDataRate                                       text11       008EFC
_RF24_setRetries                                        text57       009D9C
_RF24_spiTrans                                          text114      009F7C
_RF24_startFastWrite                                    text117      0099AE
_RF24_startFastWrite$3248                               cstackCOMRAM 00002E
_RF24_startListening                                    text151      00933A
_RF24_stopListening                                     text152      008F66
_RF24_toggle_features_d                                 text10       009F3A
_RF24_txStandBy_t                                       text153      008166
_RF24_writeFast_m                                       text118      0098B8
_RF24_write_payload                                     text112      008792
_RF24_write_payload$3173                                cstackCOMRAM 000023
_RF24_write_payload$3174                                cstackCOMRAM 000025
_RF24_write_register_c_d                                text132      009AC0
_RF24_write_register_d                                  text148      009E22
_SPBRG                                                  (abs)        000FAF
_SPBRGH                                                 (abs)        000FB0
_SPI_begin                                              text9        009EEE
_SPI_transfer                                           text133      009FFC
_SSPBUF                                                 (abs)        000FC9
_SSPCON1bits                                            (abs)        000FC6
_SSPSTATbits                                            (abs)        000FC7
_Serial_begin                                           text2        008C46
_Serial_print                                           text43       008B4C
_Serial_println                                         text42       009C68
_Serial_tx                                              text44       00A01A
_T0CONbits                                              (abs)        000FD5
_TMR0H                                                  (abs)        000FD7
_TMR0L                                                  (abs)        000FD6
_TRISAbits                                              (abs)        000F92
_TRISBbits                                              (abs)        000F93
_TRISCbits                                              (abs)        000F94
_TRISDbits                                              (abs)        000F95
_TRISEbits                                              (abs)        000F96
_TXREG                                                  (abs)        000FAD
_TXSTAbits                                              (abs)        000FAC
__CFG_BOREN$OFF                                         (abs)        000000
__CFG_BORV$3                                            (abs)        000000
__CFG_CCP2MX$PORTC                                      (abs)        000000
__CFG_CP0$OFF                                           (abs)        000000
__CFG_CP1$OFF                                           (abs)        000000
__CFG_CP2$OFF                                           (abs)        000000
__CFG_CP3$OFF                                           (abs)        000000
__CFG_CPB$OFF                                           (abs)        000000
__CFG_CPD$OFF                                           (abs)        000000
__CFG_EBTR0$OFF                                         (abs)        000000
__CFG_EBTR1$OFF                                         (abs)        000000
__CFG_EBTR2$OFF                                         (abs)        000000
__CFG_EBTR3$OFF                                         (abs)        000000
__CFG_EBTRB$OFF                                         (abs)        000000
__CFG_FCMEN$OFF                                         (abs)        000000
__CFG_IESO$OFF                                          (abs)        000000
__CFG_LPT1OSC$OFF                                       (abs)        000000
__CFG_LVP$OFF                                           (abs)        000000
__CFG_MCLRE$ON                                          (abs)        000000
__CFG_OSC$HSPLL                                         (abs)        000000
__CFG_PBADEN$OFF                                        (abs)        000000
__CFG_PWRT$ON                                           (abs)        000000
__CFG_STVREN$OFF                                        (abs)        000000
__CFG_WDT$OFF                                           (abs)        000000
__CFG_WDTPS$32768                                       (abs)        000000
__CFG_WRT0$OFF                                          (abs)        000000
__CFG_WRT1$OFF                                          (abs)        000000
__CFG_WRT2$OFF                                          (abs)        000000
__CFG_WRT3$OFF                                          (abs)        000000
__CFG_WRTB$OFF                                          (abs)        000000
__CFG_WRTC$OFF                                          (abs)        000000
__CFG_WRTD$OFF                                          (abs)        000000
__CFG_XINST$OFF                                         (abs)        000000
__HRAM                                                  (abs)        000000
__Habs1                                                 abs1         000000
__Hbank0                                                bank0        000000
__Hbank1                                                bank1        000000
__Hbank10                                               bank10       000000
__Hbank11                                               bank11       000000
__Hbank12                                               bank12       000000
__Hbank13                                               bank13       000000
__Hbank14                                               bank14       000000
__Hbank15                                               bank15       000000
__Hbank2                                                bank2        000000
__Hbank3                                                bank3        000000
__Hbank4                                                bank4        000000
__Hbank5                                                bank5        000000
__Hbank6                                                bank6        000000
__Hbank7                                                bank7        000000
__Hbank8                                                bank8        000000
__Hbank9                                                bank9        000000
__Hbigbss                                               bigbss       000000
__Hbigdata                                              bigdata      000000
__Hbigram                                               bigram       000000
__Hbss                                                  bss          000000
__HbssBANK0                                             bssBANK0     000000
__HbssBANK1                                             bssBANK1     000000
__HbssBANK2                                             bssBANK2     000000
__HbssBANK3                                             bssBANK3     000000
__HbssBANK4                                             bssBANK4     000000
__HbssBIGRAM                                            bssBIGRAM    000000
__HbssCOMRAM                                            bssCOMRAM    000000
__Hcinit                                                cinit        000000
__Hclrtext                                              clrtext      000000
__Hcomram                                               comram       000000
__Hconfig                                               config       30000E
__Hconst                                                const        000000
__HcstackBANK0                                          cstackBANK0  000000
__HcstackBANK1                                          cstackBANK1  000000
__HcstackBANK2                                          cstackBANK2  000000
__HcstackCOMRAM                                         cstackCOMRAM 000000
__Hdata                                                 data         000000
__HdataBANK1                                            dataBANK1    000000
__HdataBANK2                                            dataBANK2    000000
__Heeprom_data                                          eeprom_data  000000
__Hend_init                                             end_init     00001C
__Hfarbss                                               farbss       000000
__Hfardata                                              fardata      000000
__Hibigdata                                             ibigdata     000000
__Hidata                                                idata        000000
__HidataBANK1                                           idataBANK1   000000
__HidataBANK2                                           idataBANK2   000000
__Hidloc                                                idloc        200008
__Hifardata                                             ifardata     000000
__Hinit                                                 init         000018
__Hintcode                                              intcode      000014
__Hintcode_body                                         intcode_body 000000
__Hintcodelo                                            intcodelo    000014
__Hintentry                                             intentry     000000
__Hintret                                               intret       000000
__Hintsave_regs                                         intsave_regs 000000
__Hirdata                                               irdata       000000
__Hmediumconst                                          mediumconst  010000
__HnvFARRAM                                             nvFARRAM     000000
__Hnvbit                                                nvbit        000000
__Hnvrram                                               nvrram       000000
__Hparam                                                rparam       000000
__Hpowerup                                              powerup      000014
__Hram                                                  ram          000000
__Hramtop                                               ramtop       001000
__Hrbit                                                 rbit         000000
__Hrbss                                                 rbss         000000
__Hrdata                                                rdata        000000
__Hreset_vec                                            reset_vec    000004
__Hrparam                                               rparam       000000
__Hsfr                                                  sfr          000000
__Hsmallconst                                           smallconst   000000
__Hspace_0                                              (abs)        30000E
__Hspace_1                                              (abs)        0007CE
__Hspace_2                                              (abs)        000F80
__Hstack                                                stack        000F80
__Hstruct                                               struct       000000
__Htemp                                                 temp         00007C
__Htext                                                 text         000000
__Htext0                                                text0        000000
__Htext1                                                text1        000000
__Htext10                                               text10       000000
__Htext100                                              text100      000000
__Htext101                                              text101      000000
__Htext102                                              text102      000000
__Htext103                                              text103      000000
__Htext104                                              text104      000000
__Htext105                                              text105      000000
__Htext106                                              text106      000000
__Htext107                                              text107      000000
__Htext108                                              text108      000000
__Htext109                                              text109      000000
__Htext11                                               text11       000000
__Htext110                                              text110      000000
__Htext111                                              text111      000000
__Htext112                                              text112      000000
__Htext113                                              text113      000000
__Htext114                                              text114      000000
__Htext115                                              text115      000000
__Htext116                                              text116      000000
__Htext117                                              text117      000000
__Htext118                                              text118      000000
__Htext119                                              text119      000000
__Htext12                                               text12       000000
__Htext120                                              text120      000000
__Htext121                                              text121      000000
__Htext122                                              text122      000000
__Htext123                                              text123      000000
__Htext124                                              text124      000000
__Htext125                                              text125      000000
__Htext126                                              text126      000000
__Htext127                                              text127      000000
__Htext128                                              text128      000000
__Htext129                                              text129      000000
__Htext13                                               text13       000000
__Htext130                                              text130      000000
__Htext131                                              text131      000000
__Htext132                                              text132      000000
__Htext133                                              text133      000000
__Htext134                                              text134      000000
__Htext135                                              text135      000000
__Htext136                                              text136      000000
__Htext137                                              text137      000000
__Htext138                                              text138      000000
__Htext139                                              text139      000000
__Htext14                                               text14       000000
__Htext140                                              text140      000000
__Htext141                                              text141      000000
__Htext142                                              text142      000000
__Htext143                                              text143      000000
__Htext144                                              text144      000000
__Htext145                                              text145      000000
__Htext146                                              text146      000000
__Htext147                                              text147      000000
__Htext148                                              text148      000000
__Htext149                                              text149      000000
__Htext15                                               text15       000000
__Htext150                                              text150      000000
__Htext151                                              text151      000000
__Htext152                                              text152      000000
__Htext153                                              text153      000000
__Htext154                                              text154      000000
__Htext155                                              text155      000000
__Htext156                                              text156      000000
__Htext16                                               text16       000000
__Htext17                                               text17       000000
__Htext18                                               text18       000000
__Htext19                                               text19       000000
__Htext2                                                text2        000000
__Htext20                                               text20       000000
__Htext21                                               text21       000000
__Htext22                                               text22       000000
__Htext23                                               text23       000000
__Htext24                                               text24       000000
__Htext25                                               text25       000000
__Htext26                                               text26       000000
__Htext27                                               text27       000000
__Htext28                                               text28       000000
__Htext29                                               text29       000000
__Htext3                                                text3        000000
__Htext30                                               text30       000000
__Htext31                                               text31       000000
__Htext32                                               text32       000000
__Htext33                                               text33       000000
__Htext34                                               text34       000000
__Htext35                                               text35       000000
__Htext36                                               text36       000000
__Htext37                                               text37       000000
__Htext38                                               text38       000000
__Htext39                                               text39       000000
__Htext4                                                text4        000000
__Htext40                                               text40       000000
__Htext41                                               text41       000000
__Htext42                                               text42       000000
__Htext43                                               text43       000000
__Htext44                                               text44       000000
__Htext45                                               text45       000000
__Htext46                                               text46       000000
__Htext47                                               text47       000000
__Htext48                                               text48       000000
__Htext49                                               text49       000000
__Htext5                                                text5        000000
__Htext50                                               text50       000000
__Htext51                                               text51       000000
__Htext52                                               text52       000000
__Htext53                                               text53       000000
__Htext54                                               text54       000000
__Htext55                                               text55       000000
__Htext56                                               text56       000000
__Htext57                                               text57       000000
__Htext58                                               text58       000000
__Htext59                                               text59       000000
__Htext6                                                text6        000000
__Htext60                                               text60       000000
__Htext61                                               text61       000000
__Htext62                                               text62       000000
__Htext63                                               text63       000000
__Htext64                                               text64       000000
__Htext65                                               text65       000000
__Htext66                                               text66       000000
__Htext67                                               text67       000000
__Htext68                                               text68       000000
__Htext69                                               text69       000000
__Htext7                                                text7        000000
__Htext70                                               text70       000000
__Htext71                                               text71       000000
__Htext72                                               text72       000000
__Htext73                                               text73       000000
__Htext74                                               text74       000000
__Htext75                                               text75       000000
__Htext76                                               text76       000000
__Htext77                                               text77       000000
__Htext78                                               text78       000000
__Htext79                                               text79       000000
__Htext8                                                text8        000000
__Htext80                                               text80       000000
__Htext81                                               text81       000000
__Htext82                                               text82       000000
__Htext83                                               text83       000000
__Htext84                                               text84       000000
__Htext85                                               text85       000000
__Htext86                                               text86       000000
__Htext87                                               text87       000000
__Htext88                                               text88       000000
__Htext89                                               text89       000000
__Htext9                                                text9        000000
__Htext90                                               text90       000000
__Htext91                                               text91       000000
__Htext92                                               text92       000000
__Htext93                                               text93       000000
__Htext94                                               text94       000000
__Htext95                                               text95       000000
__Htext96                                               text96       000000
__Htext97                                               text97       000000
__Htext98                                               text98       000000
__Htext99                                               text99       000000
__LRAM                                                  (abs)        000001
__Labs1                                                 abs1         000000
__Lbank0                                                bank0        000000
__Lbank1                                                bank1        000000
__Lbank10                                               bank10       000000
__Lbank11                                               bank11       000000
__Lbank12                                               bank12       000000
__Lbank13                                               bank13       000000
__Lbank14                                               bank14       000000
__Lbank15                                               bank15       000000
__Lbank2                                                bank2        000000
__Lbank3                                                bank3        000000
__Lbank4                                                bank4        000000
__Lbank5                                                bank5        000000
__Lbank6                                                bank6        000000
__Lbank7                                                bank7        000000
__Lbank8                                                bank8        000000
__Lbank9                                                bank9        000000
__Lbigbss                                               bigbss       000000
__Lbigdata                                              bigdata      000000
__Lbigram                                               bigram       000000
__Lbss                                                  bss          000000
__LbssBANK0                                             bssBANK0     000000
__LbssBANK1                                             bssBANK1     000000
__LbssBANK2                                             bssBANK2     000000
__LbssBANK3                                             bssBANK3     000000
__LbssBANK4                                             bssBANK4     000000
__LbssBIGRAM                                            bssBIGRAM    000000
__LbssCOMRAM                                            bssCOMRAM    000000
__Lcinit                                                cinit        000000
__Lclrtext                                              clrtext      000000
__Lcomram                                               comram       000000
__Lconfig                                               config       300000
__Lconst                                                const        000000
__LcstackBANK0                                          cstackBANK0  000000
__LcstackBANK1                                          cstackBANK1  000000
__LcstackBANK2                                          cstackBANK2  000000
__LcstackCOMRAM                                         cstackCOMRAM 000000
__Ldata                                                 data         000000
__LdataBANK1                                            dataBANK1    000000
__LdataBANK2                                            dataBANK2    000000
__Leeprom_data                                          eeprom_data  000000
__Lend_init                                             end_init     000018
__Lfarbss                                               farbss       000000
__Lfardata                                              fardata      000000
__Libigdata                                             ibigdata     000000
__Lidata                                                idata        000000
__LidataBANK1                                           idataBANK1   000000
__LidataBANK2                                           idataBANK2   000000
__Lidloc                                                idloc        200000
__Lifardata                                             ifardata     000000
__Linit                                                 init         000014
__Lintcode                                              intcode      000008
__Lintcode_body                                         intcode_body 000000
__Lintcodelo                                            intcodelo    000014
__Lintentry                                             intentry     000000
__Lintret                                               intret       000000
__Lintsave_regs                                         intsave_regs 000000
__Lirdata                                               irdata       000000
__Lmediumconst                                          mediumconst  00F5A0
__LnvFARRAM                                             nvFARRAM     000000
__Lnvbit                                                nvbit        000000
__Lnvrram                                               nvrram       000000
__Lparam                                                rparam       000000
__Lpowerup                                              powerup      000014
__Lram                                                  ram          000000
__Lramtop                                               ramtop       001000
__Lrbit                                                 rbit         000000
__Lrbss                                                 rbss         000000
__Lrdata                                                rdata        000000
__Lreset_vec                                            reset_vec    000000
__Lrparam                                               rparam       000000
__Lsfr                                                  sfr          000000
__Lsmallconst                                           smallconst   000000
__Lspace_0                                              (abs)        000000
__Lspace_1                                              (abs)        000000
__Lspace_2                                              (abs)        000000
__Lstack                                                stack        0007CE
__Lstruct                                               struct       000000
__Ltemp                                                 temp         000070
__Ltext                                                 text         000000
__Ltext0                                                text0        000000
__Ltext1                                                text1        000000
__Ltext10                                               text10       000000
__Ltext100                                              text100      000000
__Ltext101                                              text101      000000
__Ltext102                                              text102      000000
__Ltext103                                              text103      000000
__Ltext104                                              text104      000000
__Ltext105                                              text105      000000
__Ltext106                                              text106      000000
__Ltext107                                              text107      000000
__Ltext108                                              text108      000000
__Ltext109                                              text109      000000
__Ltext11                                               text11       000000
__Ltext110                                              text110      000000
__Ltext111                                              text111      000000
__Ltext112                                              text112      000000
__Ltext113                                              text113      000000
__Ltext114                                              text114      000000
__Ltext115                                              text115      000000
__Ltext116                                              text116      000000
__Ltext117                                              text117      000000
__Ltext118                                              text118      000000
__Ltext119                                              text119      000000
__Ltext12                                               text12       000000
__Ltext120                                              text120      000000
__Ltext121                                              text121      000000
__Ltext122                                              text122      000000
__Ltext123                                              text123      000000
__Ltext124                                              text124      000000
__Ltext125                                              text125      000000
__Ltext126                                              text126      000000
__Ltext127                                              text127      000000
__Ltext128                                              text128      000000
__Ltext129                                              text129      000000
__Ltext13                                               text13       000000
__Ltext130                                              text130      000000
__Ltext131                                              text131      000000
__Ltext132                                              text132      000000
__Ltext133                                              text133      000000
__Ltext134                                              text134      000000
__Ltext135                                              text135      000000
__Ltext136                                              text136      000000
__Ltext137                                              text137      000000
__Ltext138                                              text138      000000
__Ltext139                                              text139      000000
__Ltext14                                               text14       000000
__Ltext140                                              text140      000000
__Ltext141                                              text141      000000
__Ltext142                                              text142      000000
__Ltext143                                              text143      000000
__Ltext144                                              text144      000000
__Ltext145                                              text145      000000
__Ltext146                                              text146      000000
__Ltext147                                              text147      000000
__Ltext148                                              text148      000000
__Ltext149                                              text149      000000
__Ltext15                                               text15       000000
__Ltext150                                              text150      000000
__Ltext151                                              text151      000000
__Ltext152                                              text152      000000
__Ltext153                                              text153      000000
__Ltext154                                              text154      000000
__Ltext155                                              text155      000000
__Ltext156                                              text156      000000
__Ltext16                                               text16       000000
__Ltext17                                               text17       000000
__Ltext18                                               text18       000000
__Ltext19                                               text19       000000
__Ltext2                                                text2        000000
__Ltext20                                               text20       000000
__Ltext21                                               text21       000000
__Ltext22                                               text22       000000
__Ltext23                                               text23       000000
__Ltext24                                               text24       000000
__Ltext25                                               text25       000000
__Ltext26                                               text26       000000
__Ltext27                                               text27       000000
__Ltext28                                               text28       000000
__Ltext29                                               text29       000000
__Ltext3                                                text3        000000
__Ltext30                                               text30       000000
__Ltext31                                               text31       000000
__Ltext32                                               text32       000000
__Ltext33                                               text33       000000
__Ltext34                                               text34       000000
__Ltext35                                               text35       000000
__Ltext36                                               text36       000000
__Ltext37                                               text37       000000
__Ltext38                                               text38       000000
__Ltext39                                               text39       000000
__Ltext4                                                text4        000000
__Ltext40                                               text40       000000
__Ltext41                                               text41       000000
__Ltext42                                               text42       000000
__Ltext43                                               text43       000000
__Ltext44                                               text44       000000
__Ltext45                                               text45       000000
__Ltext46                                               text46       000000
__Ltext47                                               text47       000000
__Ltext48                                               text48       000000
__Ltext49                                               text49       000000
__Ltext5                                                text5        000000
__Ltext50                                               text50       000000
__Ltext51                                               text51       000000
__Ltext52                                               text52       000000
__Ltext53                                               text53       000000
__Ltext54                                               text54       000000
__Ltext55                                               text55       000000
__Ltext56                                               text56       000000
__Ltext57                                               text57       000000
__Ltext58                                               text58       000000
__Ltext59                                               text59       000000
__Ltext6                                                text6        000000
__Ltext60                                               text60       000000
__Ltext61                                               text61       000000
__Ltext62                                               text62       000000
__Ltext63                                               text63       000000
__Ltext64                                               text64       000000
__Ltext65                                               text65       000000
__Ltext66                                               text66       000000
__Ltext67                                               text67       000000
__Ltext68                                               text68       000000
__Ltext69                                               text69       000000
__Ltext7                                                text7        000000
__Ltext70                                               text70       000000
__Ltext71                                               text71       000000
__Ltext72                                               text72       000000
__Ltext73                                               text73       000000
__Ltext74                                               text74       000000
__Ltext75                                               text75       000000
__Ltext76                                               text76       000000
__Ltext77                                               text77       000000
__Ltext78                                               text78       000000
__Ltext79                                               text79       000000
__Ltext8                                                text8        000000
__Ltext80                                               text80       000000
__Ltext81                                               text81       000000
__Ltext82                                               text82       000000
__Ltext83                                               text83       000000
__Ltext84                                               text84       000000
__Ltext85                                               text85       000000
__Ltext86                                               text86       000000
__Ltext87                                               text87       000000
__Ltext88                                               text88       000000
__Ltext89                                               text89       000000
__Ltext9                                                text9        000000
__Ltext90                                               text90       000000
__Ltext91                                               text91       000000
__Ltext92                                               text92       000000
__Ltext93                                               text93       000000
__Ltext94                                               text94       000000
__Ltext95                                               text95       000000
__Ltext96                                               text96       000000
__Ltext97                                               text97       000000
__Ltext98                                               text98       000000
__Ltext99                                               text99       000000
__S0                                                    (abs)        30000E
__S1                                                    (abs)        0007CE
__S2                                                    (abs)        000F80
___awdiv                                                text83       0089C4
___awdiv@counter                                        cstackCOMRAM 000007
___awdiv@dividend                                       cstackCOMRAM 000003
___awdiv@divisor                                        cstackCOMRAM 000005
___awdiv@quotient                                       cstackCOMRAM 000009
___awdiv@sign                                           cstackCOMRAM 000008
___awmod                                                text50       008E20
___awmod@counter                                        cstackCOMRAM 000007
___awmod@dividend                                       cstackCOMRAM 000003
___awmod@divisor                                        cstackCOMRAM 000005
___awmod@sign                                           cstackCOMRAM 000008
___inthi_sp                                             stack        000A60
___intlo_sp                                             stack        000CF0
___lldiv                                                text41       008A48
___lldiv@counter                                        cstackCOMRAM 000013
___lldiv@dividend                                       cstackCOMRAM 000007
___lldiv@divisor                                        cstackCOMRAM 00000B
___lldiv@quotient                                       cstackCOMRAM 00000F
___llmod                                                text40       008FD0
___llmod@counter                                        cstackCOMRAM 00001C
___llmod@dividend                                       cstackCOMRAM 000014
___llmod@divisor                                        cstackCOMRAM 000018
___lwdiv                                                text126      0093E8
___lwdiv@counter                                        cstackCOMRAM 000007
___lwdiv@dividend                                       cstackCOMRAM 000003
___lwdiv@divisor                                        cstackCOMRAM 000005
___lwdiv@quotient                                       cstackCOMRAM 000008
___lwmod                                                text108      009836
___lwmod@counter                                        cstackCOMRAM 000007
___lwmod@dividend                                       cstackCOMRAM 000003
___lwmod@divisor                                        cstackCOMRAM 000005
___param_bank                                           (abs)        000010
___rparam_used                                          (abs)        000001
___sp                                                   stack        0007CE
___wmul                                                 text107      009D50
___wmul@multiplicand                                    cstackCOMRAM 000005
___wmul@multiplier                                      cstackCOMRAM 000003
___wmul@product                                         cstackCOMRAM 000007
__accesstop                                             (abs)        000080
__activetblptr                                          (abs)        000003
__doprnt                                                text33       001C08
__doprnt$4687                                           cstackCOMRAM 000028
__doprnt$4688                                           cstackCOMRAM 00002A
__doprnt$4689                                           cstackCOMRAM 00002C
__doprnt$4690                                           cstackCOMRAM 00002E
__doprnt$4696                                           cstackCOMRAM 000030
__doprnt@ap                                             cstackCOMRAM 000021
__doprnt@c                                              cstackCOMRAM 00003E
__doprnt@cp                                             cstackCOMRAM 000032
__doprnt@f                                              cstackCOMRAM 00001F
__doprnt@flag                                           cstackCOMRAM 00003F
__doprnt@idx                                            cstackCOMRAM 000027
__doprnt@len                                            cstackCOMRAM 000034
__doprnt@pb                                             cstackCOMRAM 00001D
__doprnt@prec                                           cstackCOMRAM 00003A
__doprnt@val                                            cstackCOMRAM 000036
__doprnt@width                                          cstackCOMRAM 00003C
__end_of_RF24EC__allocateData                           text99       008396
__end_of_RF24EC__available                              text111      008C46
__end_of_RF24EC__write                                  text48       004DBC
__end_of_RF24EC_available                               text87       009F22
__end_of_RF24EC_findMulti                               text82       005B6E
__end_of_RF24EC_findUntil                               text79       009694
__end_of_RF24EC_findUntil_f                             text81       0085B2
__end_of_RF24EC_flush                                   text78       008D38
__end_of_RF24EC_init                                    text75       009E22
__end_of_RF24EC_init_d                                  text74       009E9A
__end_of_RF24EC_read                                    text85       009D50
__end_of_RF24EC_read_b                                  text86       004A36
__end_of_RF24EC_stop                                    text77       0075D6
__end_of_RF24EC_timedRead                               text84       0088B2
__end_of_RF24EC_valid                                   text76       008B4C
__end_of_RF24EC_write                                   text47       009D04
__end_of_RF24EC_write_s                                 text36       009BB6
__end_of_RF24ES_available                               text73       007E52
__end_of_RF24ES_begin                                   text25       009FB8
__end_of_RF24ES_init                                    text24       009F66
__end_of_RF24E_begin_i                                  text16       009722
__end_of_RF24E_begin_id                                 text17       0094D8
__end_of_RF24E_begin_idg                                text18       009B88
__end_of_RF24E_begin_idgs                               text19       009CDE
__end_of_RF24E_configure                                text20       005814
__end_of_RF24E_init                                     text15       00A0A8
__end_of_RF24E_network_send                             text104      009602
__end_of_RF24E_set_gateway                              text14       007A06
__end_of_RF24E_tick                                     text88       0080AA
__end_of_RF24M_begin                                    text6        00893E
__end_of_RF24M_checkConnection                          text62       00844E
__end_of_RF24M_getAddress                               text70       006DBC
__end_of_RF24M_getNodeID                                text71       0071F6
__end_of_RF24M_init                                     text5        00A0A4
__end_of_RF24M_loadDHCP                                 text13       00A0A6
__end_of_RF24M_renewAddress                             text49       007360
__end_of_RF24M_requestAddress                           text53       00513A
__end_of_RF24M_setAddress                               text66       007FEC
__end_of_RF24M_setNodeID                                text23       00A06A
__end_of_RF24M_update                                   text65       006FE8
__end_of_RF24NH_init                                    text110      0098B8
__end_of_RF24N__write                                   text109      007F28
__end_of_RF24N_available                                text123      009E02
__end_of_RF24N_begin                                    text55       009FEC
__end_of_RF24N_begin_d                                  text56       007D7A
__end_of_RF24N_direct_child_route_to                    text130      009A8A
__end_of_RF24N_enqueue                                  text124      004046
__end_of_RF24N_getFrag_ptr                              text103      00A05A
__end_of_RF24N_getFrame_buffer                          text72       00A050
__end_of_RF24N_getNetworkFlags                          text64       00A072
__end_of_RF24N_init                                     text4        0092DE
__end_of_RF24N_is_descendant                            text129      009C12
__end_of_RF24N_is_direct_child                          text128      009164
__end_of_RF24N_is_valid_address                         text146      009AC0
__end_of_RF24N_levelToAddress                           text144      009524
__end_of_RF24N_logicalToPhysicalAddress                 text127      007AE8
__end_of_RF24N_multicast                                text54       009100
__end_of_RF24N_pipe_address                             text137      00781E
__end_of_RF24N_setNetworkFlags                          text52       00A032
__end_of_RF24N_setReturnSysMsgs                         text12       00A062
__end_of_RF24N_setup_address                            text61       007CA2
__end_of_RF24N_update                                   text155      004598
__end_of_RF24N_write                                    text156      005E84
__end_of_RF24N_write_                                   text106      006196
__end_of_RF24N_write_m                                  text105      009C68
__end_of_RF24N_write_to_pipe                            text131      008792
__end_of_RF24_available                                 text51       00A01A
__end_of_RF24_available_p                               text143      009B58
__end_of_RF24_begin                                     text7        007BC6
__end_of_RF24_beginTransaction                          text135      00A092
__end_of_RF24_ce_d                                      text140      009ED2
__end_of_RF24_closeReadingPipe                          text116      0097F4
__end_of_RF24_csn_d                                     text136      009F3A
__end_of_RF24_enableDynamicPayloads                     text60       009CB8
__end_of_RF24_endTransaction                            text134      00A08A
__end_of_RF24_flush_rx                                  text120      00A082
__end_of_RF24_flush_tx                                  text141      00A09A
__end_of_RF24_getDynamicPayloadSize                     text119      009A1E
__end_of_RF24_get_status                                text115      00A07A
__end_of_RF24_init                                      text3        009974
__end_of_RF24_isValid                                   text145      009EEE
__end_of_RF24_openReadingPipe_d                         text59       007700
__end_of_RF24_openWritingPipe_d                         text122      008DAE
__end_of_RF24_powerUp                                   text142      009D9C
__end_of_RF24_read                                      text121      009EB6
__end_of_RF24_read_payload                              text113      0089C4
__end_of_RF24_read_register_d                           text147      009E7E
__end_of_RF24_rxFifoFull                                text63       00A03C
__end_of_RF24_setAutoAck_p                              text154      0093E8
__end_of_RF24_setChannel                                text58       009D2A
__end_of_RF24_setDataRate                               text11       008F66
__end_of_RF24_setRetries                                text57       009DBE
__end_of_RF24_spiTrans                                  text114      009F92
__end_of_RF24_startFastWrite                            text117      0099E6
__end_of_RF24_startListening                            text151      009392
__end_of_RF24_stopListening                             text152      008FD0
__end_of_RF24_toggle_features_d                         text10       009F50
__end_of_RF24_txStandBy_t                               text153      008222
__end_of_RF24_writeFast_m                               text118      0098F8
__end_of_RF24_write_payload                             text112      008824
__end_of_RF24_write_register_c_d                        text132      009AF4
__end_of_RF24_write_register_d                          text148      009E42
__end_of_SPI_begin                                      text9        009F08
__end_of_SPI_transfer                                   text133      00A00C
__end_of_Serial_begin                                   text2        008CC0
__end_of_Serial_print                                   text43       008BCA
__end_of_Serial_println                                 text42       009C90
__end_of_Serial_tx                                      text44       00A026
__end_of___awdiv                                        text83       008A48
__end_of___awmod                                        text50       008E90
__end_of___lldiv                                        text41       008ACA
__end_of___llmod                                        text40       009036
__end_of___lwdiv                                        text126      00943A
__end_of___lwmod                                        text108      009878
__end_of___wmul                                         text107      009D76
__end_of__doprnt                                        text33       002CCA
__end_of__initialization                                cinit        0086F8
__end_of_all_ones_addr                                  mediumconst  00F6AD
__end_of_all_zeroes_addr                                mediumconst  00F6B1
__end_of_begin_html                                     mediumconst  00FC74
__end_of_broadcast_ethaddr                              mediumconst  00FD24
__end_of_broadcast_ipaddr                               mediumconst  00F6B5
__end_of_child_payload_size                             mediumconst  00F69D
__end_of_child_pipe                                     mediumconst  00F6A3
__end_of_child_pipe_enable                              mediumconst  00F6A9
__end_of_chksum                                         text94       0082DC
__end_of_clock_time                                     text102      009F7C
__end_of_credits_html                                   mediumconst  00FA78
__end_of_credits_page                                   text45       009768
__end_of_delay                                          text150      00964C
__end_of_delayMicroseconds                              text139      009938
__end_of_digitalWrite                                   text138      00693E
__end_of_dpowers                                        mediumconst  00F677
__end_of_free                                           text69       00A046
__end_of_generate_tcp_stats                             text37       006442
__end_of_hexpowers                                      mediumconst  00F697
__end_of_html_page                                      mediumconst  00F61F
__end_of_htons                                          text93       009FCA
__end_of_isdigit                                        text35       009E60
__end_of_isr                                            intcode_body 009C3E
__end_of_itoa_                                          text38       009BE4
__end_of_loop                                           text27       006B88
__end_of_main                                           text0        009B26
__end_of_main_html_p1                                   mediumconst  00FBA4
__end_of_main_html_p2                                   mediumconst  00FD1E
__end_of_main_page                                      text31       0074A2
__end_of_malloc                                         text68       00933A
__end_of_memcpy                                         text125      009282
__end_of_millis                                         text149      009FDC
__end_of_octpowers                                      mediumconst  00F64F
__end_of_pinMode                                        text8        0066C0
__end_of_putch                                          text34       00A0AA
__end_of_realloc                                        text67       009DE0
__end_of_sendPage                                       text46       00948A
__end_of_serialip_appcall                               text97       003AD2
__end_of_setup                                          text1        008500
__end_of_sprintf                                        text32       009836
__end_of_stats_page                                     text29       0054B4
__end_of_strcmp                                         text28       0095B8
__end_of_strlen                                         text80       009224
__end_of_strncpy                                        text30       0091C6
__end_of_timer_expired                                  text101      008E20
__end_of_timer_reset                                    text100      009A54
__end_of_timer_set                                      text22       0099AE
__end_of_uip_add32                                      text96       008664
__end_of_uip_add_rcv_nxt                                text95       00909C
__end_of_uip_init                                       text21       008EFC
__end_of_uip_ipchksum                                   text92       0096DC
__end_of_uip_listen                                     text26       00956E
__end_of_uip_process                                    text89       001C08
__end_of_uip_send                                       text98       0097AE
__end_of_uip_tcpchksum                                  text90       009FFC
__end_of_ultoa                                          text39       007914
__end_of_upper_layer_chksum                             text91       008166
__initialization                                        cinit        008664
__mediumconst                                           mediumconst  00F5A0
__pbssBANK0                                             bssBANK0     0000EE
__pbssBANK1                                             bssBANK1     000100
__pbssBANK2                                             bssBANK2     000200
__pbssBANK3                                             bssBANK3     000300
__pbssBANK4                                             bssBANK4     000400
__pbssBIGRAM                                            bssBIGRAM    0004EA
__pbssCOMRAM                                            bssCOMRAM    00007C
__pcinit                                                cinit        008664
__pcstackBANK0                                          cstackBANK0  000080
__pcstackBANK1                                          cstackBANK1  00018C
__pcstackBANK2                                          cstackBANK2  0002F6
__pcstackCOMRAM                                         cstackCOMRAM 000001
__pdataBANK1                                            dataBANK1    0001F9
__pdataBANK2                                            dataBANK2    0002E2
__pidataBANK1                                           idataBANK1   00A09A
__pidataBANK2                                           idataBANK2   009F92
__pintcode                                              intcode      000008
__pintcode_body                                         intcode_body 009C12
__pmediumconst                                          mediumconst  00F5A0
__ptext0                                                text0        009AF4
__ptext1                                                text1        00844E
__ptext10                                               text10       009F3A
__ptext100                                              text100      009A1E
__ptext101                                              text101      008DAE
__ptext102                                              text102      009F66
__ptext103                                              text103      00A050
__ptext104                                              text104      0095B8
__ptext105                                              text105      009C3E
__ptext106                                              text106      005E84
__ptext107                                              text107      009D50
__ptext108                                              text108      009836
__ptext109                                              text109      007E52
__ptext11                                               text11       008EFC
__ptext110                                              text110      009878
__ptext111                                              text111      008BCA
__ptext112                                              text112      008792
__ptext113                                              text113      00893E
__ptext114                                              text114      009F7C
__ptext115                                              text115      00A072
__ptext116                                              text116      0097AE
__ptext117                                              text117      0099AE
__ptext118                                              text118      0098B8
__ptext119                                              text119      0099E6
__ptext12                                               text12       00A05A
__ptext120                                              text120      00A07A
__ptext121                                              text121      009E9A
__ptext122                                              text122      008D38
__ptext123                                              text123      009DE0
__ptext124                                              text124      003AD2
__ptext125                                              text125      009224
__ptext126                                              text126      0093E8
__ptext127                                              text127      007A06
__ptext128                                              text128      009100
__ptext129                                              text129      009BE4
__ptext13                                               text13       00A0A4
__ptext130                                              text130      009A54
__ptext131                                              text131      0086FE
__ptext132                                              text132      009AC0
__ptext133                                              text133      009FFC
__ptext134                                              text134      00A082
__ptext135                                              text135      00A08A
__ptext136                                              text136      009F22
__ptext137                                              text137      007700
__ptext138                                              text138      0066C0
__ptext139                                              text139      0098F8
__ptext14                                               text14       007914
__ptext140                                              text140      009EB6
__ptext141                                              text141      00A092
__ptext142                                              text142      009D76
__ptext143                                              text143      009B26
__ptext144                                              text144      0094D8
__ptext145                                              text145      009ED2
__ptext146                                              text146      009A8A
__ptext147                                              text147      009E60
__ptext148                                              text148      009E22
__ptext149                                              text149      009FCA
__ptext15                                               text15       00A0A6
__ptext150                                              text150      009602
__ptext151                                              text151      00933A
__ptext152                                              text152      008F66
__ptext153                                              text153      008166
__ptext154                                              text154      009392
__ptext155                                              text155      004046
__ptext156                                              text156      005B6E
__ptext16                                               text16       0096DC
__ptext17                                               text17       00948A
__ptext18                                               text18       009B58
__ptext19                                               text19       009CB8
__ptext2                                                text2        008C46
__ptext20                                               text20       0054B4
__ptext21                                               text21       008E90
__ptext22                                               text22       009974
__ptext23                                               text23       00A062
__ptext24                                               text24       009F50
__ptext25                                               text25       009FA6
__ptext26                                               text26       009524
__ptext27                                               text27       00693E
__ptext28                                               text28       00956E
__ptext29                                               text29       00513A
__ptext3                                                text3        009938
__ptext30                                               text30       009164
__ptext31                                               text31       007360
__ptext32                                               text32       0097F4
__ptext33                                               text33       001C08
__ptext34                                               text34       00A0A8
__ptext35                                               text35       009E42
__ptext36                                               text36       009B88
__ptext37                                               text37       006196
__ptext38                                               text38       009BB6
__ptext39                                               text39       00781E
__ptext4                                                text4        009282
__ptext40                                               text40       008FD0
__ptext41                                               text41       008A48
__ptext42                                               text42       009C68
__ptext43                                               text43       008B4C
__ptext44                                               text44       00A01A
__ptext45                                               text45       009722
__ptext46                                               text46       00943A
__ptext47                                               text47       009CDE
__ptext48                                               text48       004A36
__ptext49                                               text49       0071F6
__ptext5                                                text5        00A0A2
__ptext50                                               text50       008E20
__ptext51                                               text51       00A00C
__ptext52                                               text52       00A026
__ptext53                                               text53       004DBC
__ptext54                                               text54       00909C
__ptext55                                               text55       009FDC
__ptext56                                               text56       007CA2
__ptext57                                               text57       009D9C
__ptext58                                               text58       009D04
__ptext59                                               text59       0075D6
__ptext6                                                text6        0088B2
__ptext60                                               text60       009C90
__ptext61                                               text61       007BC6
__ptext62                                               text62       008396
__ptext63                                               text63       00A032
__ptext64                                               text64       00A06A
__ptext65                                               text65       006DBC
__ptext66                                               text66       007F28
__ptext67                                               text67       009DBE
__ptext68                                               text68       0092DE
__ptext69                                               text69       00A03C
__ptext7                                                text7        007AE8
__ptext70                                               text70       006B88
__ptext71                                               text71       006FE8
__ptext72                                               text72       00A046
__ptext73                                               text73       007D7A
__ptext74                                               text74       009E7E
__ptext75                                               text75       009E02
__ptext76                                               text76       008ACA
__ptext77                                               text77       0074A2
__ptext78                                               text78       008CC0
__ptext79                                               text79       00964C
__ptext8                                                text8        006442
__ptext80                                               text80       0091C6
__ptext81                                               text81       008500
__ptext82                                               text82       005814
__ptext83                                               text83       0089C4
__ptext84                                               text84       008824
__ptext85                                               text85       009D2A
__ptext86                                               text86       004598
__ptext87                                               text87       009F08
__ptext88                                               text88       007FEC
__ptext89                                               text89       00001C
__ptext9                                                text9        009EEE
__ptext90                                               text90       009FEC
__ptext91                                               text91       0080AA
__ptext92                                               text92       009694
__ptext93                                               text93       009FB8
__ptext94                                               text94       008222
__ptext95                                               text95       009036
__ptext96                                               text96       0085B2
__ptext97                                               text97       002CCA
__ptext98                                               text98       009768
__ptext99                                               text99       0082DC
__ramtop                                                ramtop       001000
__size_of_RF24EC__allocateData                          (abs)        000000
__size_of_RF24EC__available                             (abs)        000000
__size_of_RF24EC__write                                 (abs)        000000
__size_of_RF24EC_available                              (abs)        000000
__size_of_RF24EC_findMulti                              (abs)        000000
__size_of_RF24EC_findUntil                              (abs)        000000
__size_of_RF24EC_findUntil_f                            (abs)        000000
__size_of_RF24EC_flush                                  (abs)        000000
__size_of_RF24EC_init                                   (abs)        000000
__size_of_RF24EC_init_d                                 (abs)        000000
__size_of_RF24EC_read                                   (abs)        000000
__size_of_RF24EC_read_b                                 (abs)        000000
__size_of_RF24EC_stop                                   (abs)        000000
__size_of_RF24EC_timedRead                              (abs)        000000
__size_of_RF24EC_valid                                  (abs)        000000
__size_of_RF24EC_write                                  (abs)        000000
__size_of_RF24EC_write_s                                (abs)        000000
__size_of_RF24ES_available                              (abs)        000000
__size_of_RF24ES_begin                                  (abs)        000000
__size_of_RF24ES_init                                   (abs)        000000
__size_of_RF24E_begin_i                                 (abs)        000000
__size_of_RF24E_begin_id                                (abs)        000000
__size_of_RF24E_begin_idg                               (abs)        000000
__size_of_RF24E_begin_idgs                              (abs)        000000
__size_of_RF24E_configure                               (abs)        000000
__size_of_RF24E_init                                    (abs)        000000
__size_of_RF24E_network_send                            (abs)        000000
__size_of_RF24E_set_gateway                             (abs)        000000
__size_of_RF24E_tick                                    (abs)        000000
__size_of_RF24M_begin                                   (abs)        000000
__size_of_RF24M_checkConnection                         (abs)        000000
__size_of_RF24M_getAddress                              (abs)        000000
__size_of_RF24M_getNodeID                               (abs)        000000
__size_of_RF24M_init                                    (abs)        000000
__size_of_RF24M_loadDHCP                                (abs)        000000
__size_of_RF24M_renewAddress                            (abs)        000000
__size_of_RF24M_requestAddress                          (abs)        000000
__size_of_RF24M_setAddress                              (abs)        000000
__size_of_RF24M_setNodeID                               (abs)        000000
__size_of_RF24M_update                                  (abs)        000000
__size_of_RF24NH_init                                   (abs)        000000
__size_of_RF24N__write                                  (abs)        000000
__size_of_RF24N_available                               (abs)        000000
__size_of_RF24N_begin                                   (abs)        000000
__size_of_RF24N_begin_d                                 (abs)        000000
__size_of_RF24N_direct_child_route_to                   (abs)        000000
__size_of_RF24N_enqueue                                 (abs)        000000
__size_of_RF24N_getFrag_ptr                             (abs)        000000
__size_of_RF24N_getFrame_buffer                         (abs)        000000
__size_of_RF24N_getNetworkFlags                         (abs)        000000
__size_of_RF24N_init                                    (abs)        000000
__size_of_RF24N_is_descendant                           (abs)        000000
__size_of_RF24N_is_direct_child                         (abs)        000000
__size_of_RF24N_is_valid_address                        (abs)        000000
__size_of_RF24N_levelToAddress                          (abs)        000000
__size_of_RF24N_logicalToPhysicalAddress                (abs)        000000
__size_of_RF24N_multicast                               (abs)        000000
__size_of_RF24N_pipe_address                            (abs)        000000
__size_of_RF24N_setNetworkFlags                         (abs)        000000
__size_of_RF24N_setReturnSysMsgs                        (abs)        000000
__size_of_RF24N_setup_address                           (abs)        000000
__size_of_RF24N_update                                  (abs)        000000
__size_of_RF24N_write                                   (abs)        000000
__size_of_RF24N_write_                                  (abs)        000000
__size_of_RF24N_write_m                                 (abs)        000000
__size_of_RF24N_write_to_pipe                           (abs)        000000
__size_of_RF24_available                                (abs)        000000
__size_of_RF24_available_p                              (abs)        000000
__size_of_RF24_begin                                    (abs)        000000
__size_of_RF24_beginTransaction                         (abs)        000000
__size_of_RF24_ce_d                                     (abs)        000000
__size_of_RF24_closeReadingPipe                         (abs)        000000
__size_of_RF24_csn_d                                    (abs)        000000
__size_of_RF24_enableDynamicPayloads                    (abs)        000000
__size_of_RF24_endTransaction                           (abs)        000000
__size_of_RF24_flush_rx                                 (abs)        000000
__size_of_RF24_flush_tx                                 (abs)        000000
__size_of_RF24_getDynamicPayloadSize                    (abs)        000000
__size_of_RF24_get_status                               (abs)        000000
__size_of_RF24_init                                     (abs)        000000
__size_of_RF24_isValid                                  (abs)        000000
__size_of_RF24_openReadingPipe_d                        (abs)        000000
__size_of_RF24_openWritingPipe_d                        (abs)        000000
__size_of_RF24_powerUp                                  (abs)        000000
__size_of_RF24_read                                     (abs)        000000
__size_of_RF24_read_payload                             (abs)        000000
__size_of_RF24_read_register_d                          (abs)        000000
__size_of_RF24_rxFifoFull                               (abs)        000000
__size_of_RF24_setAutoAck_p                             (abs)        000000
__size_of_RF24_setChannel                               (abs)        000000
__size_of_RF24_setDataRate                              (abs)        000000
__size_of_RF24_setRetries                               (abs)        000000
__size_of_RF24_spiTrans                                 (abs)        000000
__size_of_RF24_startFastWrite                           (abs)        000000
__size_of_RF24_startListening                           (abs)        000000
__size_of_RF24_stopListening                            (abs)        000000
__size_of_RF24_toggle_features_d                        (abs)        000000
__size_of_RF24_txStandBy_t                              (abs)        000000
__size_of_RF24_writeFast_m                              (abs)        000000
__size_of_RF24_write_payload                            (abs)        000000
__size_of_RF24_write_register_c_d                       (abs)        000000
__size_of_RF24_write_register_d                         (abs)        000000
__size_of_SPI_begin                                     (abs)        000000
__size_of_SPI_transfer                                  (abs)        000000
__size_of_Serial_begin                                  (abs)        000000
__size_of_Serial_print                                  (abs)        000000
__size_of_Serial_println                                (abs)        000000
__size_of_Serial_tx                                     (abs)        000000
__size_of___awdiv                                       (abs)        000000
__size_of___awmod                                       (abs)        000000
__size_of___lldiv                                       (abs)        000000
__size_of___llmod                                       (abs)        000000
__size_of___lwdiv                                       (abs)        000000
__size_of___lwmod                                       (abs)        000000
__size_of___wmul                                        (abs)        000000
__size_of__doprnt                                       (abs)        000000
__size_of_chksum                                        (abs)        000000
__size_of_clock_time                                    (abs)        000000
__size_of_credits_page                                  (abs)        000000
__size_of_delay                                         (abs)        000000
__size_of_delayMicroseconds                             (abs)        000000
__size_of_digitalWrite                                  (abs)        000000
__size_of_free                                          (abs)        000000
__size_of_generate_tcp_stats                            (abs)        000000
__size_of_htons                                         (abs)        000000
__size_of_isdigit                                       (abs)        000000
__size_of_isr                                           (abs)        000000
__size_of_itoa_                                         (abs)        000000
__size_of_loop                                          (abs)        000000
__size_of_main                                          (abs)        000000
__size_of_main_page                                     (abs)        000000
__size_of_malloc                                        (abs)        000000
__size_of_memcpy                                        (abs)        000000
__size_of_millis                                        (abs)        000000
__size_of_pinMode                                       (abs)        000000
__size_of_putch                                         (abs)        000000
__size_of_realloc                                       (abs)        000000
__size_of_sendPage                                      (abs)        000000
__size_of_serialip_appcall                              (abs)        000000
__size_of_setup                                         (abs)        000000
__size_of_sprintf                                       (abs)        000000
__size_of_stats_page                                    (abs)        000000
__size_of_strcmp                                        (abs)        000000
__size_of_strlen                                        (abs)        000000
__size_of_strncpy                                       (abs)        000000
__size_of_timer_expired                                 (abs)        000000
__size_of_timer_reset                                   (abs)        000000
__size_of_timer_set                                     (abs)        000000
__size_of_uip_add32                                     (abs)        000000
__size_of_uip_add_rcv_nxt                               (abs)        000000
__size_of_uip_init                                      (abs)        000000
__size_of_uip_ipchksum                                  (abs)        000000
__size_of_uip_listen                                    (abs)        000000
__size_of_uip_process                                   (abs)        000000
__size_of_uip_send                                      (abs)        000000
__size_of_uip_tcpchksum                                 (abs)        000000
__size_of_ultoa                                         (abs)        000000
__size_of_upper_layer_chksum                            (abs)        000000
__smallconst                                            smallconst   000000
_all_data                                               bssBANK4     000400
_all_zeroes_addr                                        mediumconst  00F6AD
_arp_table                                              bssBANK3     000364
_arptime                                                bssBANK0     0000F8
_begin_html                                             mediumconst  00FBA4
_broadcast_ethaddr                                      mediumconst  00FD1E
_broadcast_ipaddr                                       mediumconst  00F6B1
_buff                                                   bssBANK2     0002D2
_c                                                      bssBANK1     000151
_child_payload_size                                     mediumconst  00F697
_child_pipe                                             mediumconst  00F69D
_child_pipe_enable                                      mediumconst  00F6A3
_chksum                                                 text94       008222
_cli                                                    bssBANK1     000114
_clock_time                                             text102      009F66
_credits_html                                           mediumconst  00F6B5
_credits_page                                           text45       009722
_defaultnetif                                           bssBANK1     00013A
_delay                                                  text150      009602
_delayMicroseconds                                      text139      0098F8
_digitalWrite                                           text138      0066C0
_dpowers                                                mediumconst  00F64F
_ec                                                     bssBANK1     000154
_entries                                                bssBANK2     000240
_free                                                   text69       00A03C
_fwcache                                                bssBANK2     0002B6
_generate_tcp_stats                                     text37       006196
_generate_tcp_stats$427                                 cstackCOMRAM 00003C
_hexpowers                                              mediumconst  00F677
_htons                                                  text93       009FB8
_i                                                      bssBANK0     0000F9
_ipaddr                                                 bssBANK1     00011E
_ipid                                                   bssBANK1     00013C
_isdigit                                                text35       009E42
_isdigit$4910                                           cstackCOMRAM 000004
_isr                                                    intcode      000008
_iss                                                    bssBANK1     000122
_itoa_                                                  text38       009BB6
_lastport                                               bssBANK1     00013E
_led_state                                              bssBANK1     000152
_loop                                                   text27       00693E
_main                                                   text0        009AF4
_main_html_p1                                           mediumconst  00FA78
_main_html_p2                                           mediumconst  00FC74
_main_page                                              text31       007360
_malloc                                                 text68       0092DE
_mem_pool                                               bssBANK3     000300
_memcpy                                                 text125      009224
_mesh                                                   bssBANK2     00022C
_mesh_timer                                             bssBANK1     000126
_millis                                                 text149      009FCA
_mtime                                                  bssBANK1     00012A
_netifs                                                 bssBANK1     000140
_network                                                bssBIGRAM    0004EA
_next_alloc                                             bssBANK1     000142
_next_id                                                dataBANK1    0001FC
_octpowers                                              mediumconst  00F61F
_opt                                                    bssBANK0     0000FA
_pinMode                                                text8        006442
_putch                                                  text34       00A0A8
_radio                                                  bssBANK2     000216
_realloc                                                text67       009DBE
_rf                                                     bssBANK1     00016A
_rn                                                     bssBIGRAM    00065C
_sendPage                                               text46       00943A
_serialip_appcall                                       text97       002CCA
_serialip_appcall$4194                                  cstackCOMRAM 000024
_server                                                 bssBANK1     000144
_setup                                                  text1        00844E
_sprintf                                                text32       0097F4
_srv                                                    bssBANK1     000146
_stats_page                                             text29       00513A
_strcmp                                                 text28       00956E
_strlen                                                 text80       0091C6
_strncpy                                                text30       009164
_timer_expired                                          text101      008DAE
_timer_reset                                            text100      009A1E
_timer_set                                              text22       009974
_tmp16                                                  bssBANK0     0000F2
_tmpage                                                 bssBANK1     000153
_uip_acc32                                              bssBANK1     00012E
_uip_add32                                              text96       0085B2
_uip_add_rcv_nxt                                        text95       009036
_uip_appdata                                            bssBANK1     000148
_uip_buf                                                bssCOMRAM    00007C
_uip_conn                                               bssBANK0     0000F4
_uip_conns                                              bssBANK2     000298
_uip_draddr                                             bssBANK1     000132
_uip_ethaddr                                            bssBANK2     0002DC
_uip_flags                                              bssBANK0     0000FB
_uip_hostaddr                                           bssBANK0     0000EE
_uip_init                                               text21       008E90
_uip_ipchksum                                           text92       009694
_uip_len                                                bssBANK0     0000F6
_uip_listen                                             text26       009524
_uip_listenports                                        bssBANK1     00014A
_uip_netmask                                            bssBANK1     000136
_uip_process                                            text89       00001C
_uip_process$3026                                       cstackCOMRAM 000032
_uip_process$3043                                       cstackCOMRAM 000034
_uip_process$3045                                       cstackCOMRAM 000036
_uip_sappdata                                           bssBANK1     00014C
_uip_send                                               text98       009768
_uip_slen                                               bssBANK1     00014E
_uip_tcpchksum                                          text90       009FEC
_ultoa                                                  text39       00781E
_upper_layer_chksum                                     text91       0080AA
btemp                                                   temp         000070
chksum@data                                             cstackCOMRAM 000005
chksum@dataptr                                          cstackCOMRAM 000011
chksum@last_byte                                        cstackCOMRAM 00000D
chksum@len                                              cstackCOMRAM 000007
chksum@sum                                              cstackCOMRAM 000003
chksum@t                                                cstackCOMRAM 00000F
credits_page@html_pointer                               cstackBANK0  0000AA
delay@i                                                 cstackCOMRAM 00000F
delay@j                                                 cstackCOMRAM 000011
delay@val                                               cstackCOMRAM 000009
delayMicroseconds@d                                     cstackCOMRAM 00000A
delayMicroseconds@i                                     cstackCOMRAM 00000B
delayMicroseconds@j                                     cstackCOMRAM 00000D
digitalWrite@mode                                       cstackCOMRAM 000003
digitalWrite@pin                                        cstackCOMRAM 000005
end_of_initialization                                   cinit        0086F8
free@dat                                                cstackCOMRAM 000003
generate_tcp_stats@conn                                 cstackCOMRAM 00003F
generate_tcp_stats@i                                    cstackCOMRAM 00003E
htons@val                                               cstackCOMRAM 000003
int_func                                                intcode_body 009C12
intlevel0                                               text         000000
intlevel1                                               text         000000
intlevel2                                               text         000000
intlevel3                                               text         000000
isdigit@c                                               cstackCOMRAM 000005
itoa_@val                                               cstackCOMRAM 00002A
loop@F4228                                              dataBANK1    0001F9
loop@buf                                                cstackBANK2  0002F8
loop@pageReq                                            cstackBANK2  0002FB
loop@size                                               cstackBANK2  0002F6
main_page@bf                                            cstackBANK1  00018C
main_page@html_pointer                                  cstackBANK1  0001F3
main_page@html_pointer2                                 dataBANK1    0001FE
main_page@lColor                                        cstackBANK1  0001F7
main_page@lState                                        cstackBANK1  0001F5
malloc@ret                                              cstackCOMRAM 00000A
malloc@size                                             cstackCOMRAM 000003
memcpy@d                                                cstackCOMRAM 00000C
memcpy@d1                                               cstackCOMRAM 000005
memcpy@n                                                cstackCOMRAM 000009
memcpy@s                                                cstackCOMRAM 00000E
memcpy@s1                                               cstackCOMRAM 000007
pinMode@mode                                            cstackCOMRAM 000003
pinMode@pin                                             cstackCOMRAM 000004
realloc@dat                                             cstackCOMRAM 00000C
realloc@size                                            cstackCOMRAM 00000E
sendPage@_pointer                                       cstackBANK0  0000A6
sendPage@c                                              cstackCOMRAM 00006F
sendPage@i                                              cstackCOMRAM 00006D
sendPage@size                                           cstackBANK0  0000A8
serialip_appcall@u                                      cstackCOMRAM 000028
setup@F4220                                             dataBANK2    0002EE
setup@F4222                                             dataBANK2    0002F2
setup@gwIP                                              cstackBANK0  0000DE
setup@myIP                                              cstackBANK0  0000E2
sprintf@ap                                              cstackCOMRAM 000053
sprintf@f                                               cstackCOMRAM 000043
sprintf@pb                                              cstackCOMRAM 000055
sprintf@wh                                              cstackCOMRAM 000041
stackhi                                                 (abs)        000F7F
stacklo                                                 (abs)        0007CE
start                                                   init         000014
start_initialization                                    cinit        008664
stats_page@buffer                                       cstackBANK0  0000AC
stats_page@days                                         cstackBANK0  0000D9
stats_page@hours                                        cstackBANK0  0000E2
stats_page@minutes                                      cstackBANK0  0000DE
stats_page@seconds                                      cstackBANK0  0000DA
strcmp@r                                                cstackCOMRAM 000008
strcmp@s1                                               cstackCOMRAM 000003
strcmp@s2                                               cstackCOMRAM 000005
strlen@cp                                               cstackBANK0  0000A8
strlen@s                                                cstackBANK0  0000A6
strncpy@cp                                              cstackCOMRAM 000009
strncpy@from                                            cstackCOMRAM 000005
strncpy@size                                            cstackCOMRAM 000007
strncpy@to                                              cstackCOMRAM 000003
timer_expired@t                                         cstackCOMRAM 00000B
timer_reset@t                                           cstackCOMRAM 000003
timer_set@interval                                      cstackCOMRAM 00000D
timer_set@t                                             cstackCOMRAM 00000B
uip@c                                                   bssBANK0     0000FC
uip_add32@op16                                          cstackCOMRAM 000005
uip_add32@op32                                          cstackCOMRAM 000003
uip_add_rcv_nxt@n                                       cstackCOMRAM 00000B
uip_ipchksum@sum                                        cstackCOMRAM 000015
uip_listen@port                                         cstackCOMRAM 000003
uip_process@flag                                        cstackCOMRAM 000038
uip_process@m                                           cstackCOMRAM 000039
uip_process@uip_connr                                   cstackCOMRAM 00003A
uip_send@data                                           cstackCOMRAM 000010
uip_send@len                                            cstackCOMRAM 000012
ultoa@base                                              cstackCOMRAM 000023
ultoa@buf                                               cstackCOMRAM 00001D
ultoa@c                                                 cstackCOMRAM 000029
ultoa@v                                                 cstackCOMRAM 000025
ultoa@val                                               cstackCOMRAM 00001F
upper_layer_chksum@proto                                cstackCOMRAM 000019
upper_layer_chksum@sum                                  cstackCOMRAM 00001C
upper_layer_chksum@upper_layer_len                      cstackCOMRAM 00001A


FUNCTION INFORMATION:

 *************** function _main *****************
 Defined at:
		line 31 in file "pic_main.c"
 Parameters:    Size  Location     Type
		None
 Auto vars:     Size  Location     Type
		None
 Return value:  Size  Location     Type
                  1    wreg      void 
 Registers used:
		wreg, fsr0l, fsr0h, fsr1l, fsr1h, fsr2l, fsr2h, status,2, status,0, pclat, btemp, btemp+1, btemp+2, btemp+3, btemp+4, btemp+5, btemp+6, btemp+7, btemp+8, btemp+9, btemp+10, btemp+11, tosl, structret, tblptrl, tblptrh, tblptru, prodl, prodh, bsr, cstack
 Tracked objects:
		On entry : 
		On exit  : 
		Unchanged: 
 Data sizes:     COMRAM   BANK0   BANK1   BANK2   BANK3   BANK4   BANK5   BANK6   BANK7   BANK8   BANK9  BANK10  BANK11  BANK12  BANK13  BANK14  BANK15
      Params:         0       0       0       0       0       0       0       0       0       0       0       0       0       0       0       0       0
      Locals:         0       0       0       0       0       0       0       0       0       0       0       0       0       0       0       0       0
      Temps:          0       0       0       0       0       0       0       0       0       0       0       0       0       0       0       0       0
      Totals:         0       0       0       0       0       0       0       0       0       0       0       0       0       0       0       0       0
Total ram usage:        0 bytes
 Hardware stack levels required when called:   20
 This function calls:
		_loop
		_setup
 This function is called by:
		Startup code after reset
 This function uses a non-reentrant model


 *************** function _setup *****************
 Defined at:
		line 49 in file "InteractiveServer_Mesh.c"
 Parameters:    Size  Location     Type
		None
 Auto vars:     Size  Location     Type
  myIP            4   98[BANK0 ] unsigned char [4]
  gwIP            4   94[BANK0 ] unsigned char [4]
 Return value:  Size  Location     Type
                  1    wreg      void 
 Registers used:
		wreg, fsr0l, fsr0h, fsr1l, fsr1h, fsr2l, fsr2h, status,2, status,0, pclat, btemp, btemp+1, btemp+2, btemp+3, btemp+4, btemp+5, btemp+6, btemp+7, btemp+8, btemp+9, btemp+10, btemp+11, tosl, structret, tblptrl, tblptrh, tblptru, prodl, prodh, bsr, cstack
 Tracked objects:
		On entry : 
		On exit  : 
		Unchanged: 
 Data sizes:     COMRAM   BANK0   BANK1   BANK2   BANK3   BANK4   BANK5   BANK6   BANK7   BANK8   BANK9  BANK10  BANK11  BANK12  BANK13  BANK14  BANK15
      Params:         0       0       0       0       0       0       0       0       0       0       0       0       0       0       0       0       0
      Locals:         0       8       0       0       0       0       0       0       0       0       0       0       0       0       0       0       0
      Temps:          0       0       0       0       0       0       0       0       0       0       0       0       0       0       0       0       0
      Totals:         0       8       0       0       0       0       0       0       0       0       0       0       0       0       0       0       0
Total ram usage:        8 bytes
 Hardware stack levels used:    1
 Hardware stack levels required when called:   17
 This function calls:
		_RF24ES_begin
		_RF24ES_init
		_RF24E_begin_i
		_RF24E_init
		_RF24E_set_gateway
		_RF24M_begin
		_RF24M_init
		_RF24N_init
		_RF24_init
		_Serial_begin
		_Serial_println
		_pinMode
 This function is called by:
		_main
 This function uses a non-reentrant model


 *************** function _Serial_begin *****************
 Defined at:
		line 30 in file "serial.c"
 Parameters:    Size  Location     Type
  baud            4   19[COMRAM] unsigned long 
 Auto vars:     Size  Location     Type
		None
 Return value:  Size  Location     Type
                  1    wreg      void 
 Registers used:
		wreg, status,2, status,0, cstack
 Tracked objects:
		On entry : 
		On exit  : 
		Unchanged: 
 Data sizes:     COMRAM   BANK0   BANK1   BANK2   BANK3   BANK4   BANK5   BANK6   BANK7   BANK8   BANK9  BANK10  BANK11  BANK12  BANK13  BANK14  BANK15
      Params:         4       0       0       0       0       0       0       0       0       0       0       0       0       0       0       0       0
      Locals:         0       0       0       0       0       0       0       0       0       0       0       0       0       0       0       0       0
      Temps:          4       0       0       0       0       0       0       0       0       0       0       0       0       0       0       0       0
      Totals:         8       0       0       0       0       0       0       0       0       0       0       0       0       0       0       0       0
Total ram usage:        8 bytes
 Hardware stack levels used:    1
 Hardware stack levels required when called:    2
 This function calls:
		___lldiv
 This function is called by:
		_setup
 This function uses a non-reentrant model


 *************** function _RF24_init *****************
 Defined at:
		line 433 in file "../../../RF24_cg/RF24_cg.c"
 Parameters:    Size  Location     Type
  _cepin          1    wreg     unsigned char 
  _cspin          1    2[COMRAM] unsigned char 
 Auto vars:     Size  Location     Type
  _cepin          1    3[COMRAM] unsigned char 
 Return value:  Size  Location     Type
                  1    wreg      void 
 Registers used:
		wreg, status,2
 Tracked objects:
		On entry : 
		On exit  : 
		Unchanged: 
 Data sizes:     COMRAM   BANK0   BANK1   BANK2   BANK3   BANK4   BANK5   BANK6   BANK7   BANK8   BANK9  BANK10  BANK11  BANK12  BANK13  BANK14  BANK15
      Params:         1       0       0       0       0       0       0       0       0       0       0       0       0       0       0       0       0
      Locals:         1       0       0       0       0       0       0       0       0       0       0       0       0       0       0       0       0
      Temps:          0       0       0       0       0       0       0       0       0       0       0       0       0       0       0       0       0
      Totals:         2       0       0       0       0       0       0       0       0       0       0       0       0       0       0       0       0
Total ram usage:        2 bytes
 Hardware stack levels used:    1
 Hardware stack levels required when called:    1
 This function calls:
		Nothing
 This function is called by:
		_setup
 This function uses a non-reentrant model


 *************** function _RF24N_init *****************
 Defined at:
		line 84 in file "../../../RF24Network_cg/RF24Network_cg.c"
 Parameters:    Size  Location     Type
		None
 Auto vars:     Size  Location     Type
		None
 Return value:  Size  Location     Type
                  1    wreg      void 
 Registers used:
		None
 Tracked objects:
		On entry : 
		On exit  : 
		Unchanged: 
 Data sizes:     COMRAM   BANK0   BANK1   BANK2   BANK3   BANK4   BANK5   BANK6   BANK7   BANK8   BANK9  BANK10  BANK11  BANK12  BANK13  BANK14  BANK15
      Params:         0       0       0       0       0       0       0       0       0       0       0       0       0       0       0       0       0
      Locals:         0       0       0       0       0       0       0       0       0       0       0       0       0       0       0       0       0
      Temps:          0       0       0       0       0       0       0       0       0       0       0       0       0       0       0       0       0
      Totals:         0       0       0       0       0       0       0       0       0       0       0       0       0       0       0       0       0
Total ram usage:        0 bytes
 Hardware stack levels used:    1
 Hardware stack levels required when called:    1
 This function calls:
		Nothing
 This function is called by:
		_setup
 This function uses a non-reentrant model


 *************** function _RF24M_init *****************
 Defined at:
		line 29 in file "../../../RF24Mesh_cg/RF24Mesh_cg.c"
 Parameters:    Size  Location     Type
		None
 Auto vars:     Size  Location     Type
		None
 Return value:  Size  Location     Type
                  1    wreg      void 
 Registers used:
		None
 Tracked objects:
		On entry : 
		On exit  : 
		Unchanged: 
 Data sizes:     COMRAM   BANK0   BANK1   BANK2   BANK3   BANK4   BANK5   BANK6   BANK7   BANK8   BANK9  BANK10  BANK11  BANK12  BANK13  BANK14  BANK15
      Params:         0       0       0       0       0       0       0       0       0       0       0       0       0       0       0       0       0
      Locals:         0       0       0       0       0       0       0       0       0       0       0       0       0       0       0       0       0
      Temps:          0       0       0       0       0       0       0       0       0       0       0       0       0       0       0       0       0
      Totals:         0       0       0       0       0       0       0       0       0       0       0       0       0       0       0       0       0
Total ram usage:        0 bytes
 Hardware stack levels used:    1
 Hardware stack levels required when called:    1
 This function calls:
		Nothing
 This function is called by:
		_setup
 This function uses a non-reentrant model


 *************** function _RF24M_begin *****************
 Defined at:
		line 36 in file "../../../RF24Mesh_cg/RF24Mesh_cg.c"
 Parameters:    Size  Location     Type
  channel         1    wreg     unsigned char 
  data_rate       1   89[BANK0 ] enum E3388
  timeout         4   90[BANK0 ] unsigned long 
 Auto vars:     Size  Location     Type
  channel         1  108[COMRAM] unsigned char 
 Return value:  Size  Location     Type
                  1    wreg      unsigned char 
 Registers used:
		wreg, fsr0l, fsr0h, fsr1l, fsr1h, fsr2l, fsr2h, status,2, status,0, pclat, btemp, btemp+1, btemp+2, btemp+3, btemp+4, btemp+5, btemp+6, btemp+7, btemp+8, btemp+9, btemp+10, btemp+11, tosl, structret, tblptrl, tblptrh, tblptru, prodl, prodh, bsr, cstack
 Tracked objects:
		On entry : 
		On exit  : 
		Unchanged: 
 Data sizes:     COMRAM   BANK0   BANK1   BANK2   BANK3   BANK4   BANK5   BANK6   BANK7   BANK8   BANK9  BANK10  BANK11  BANK12  BANK13  BANK14  BANK15
      Params:         0       5       0       0       0       0       0       0       0       0       0       0       0       0       0       0       0
      Locals:         1       0       0       0       0       0       0       0       0       0       0       0       0       0       0       0       0
      Temps:          0       0       0       0       0       0       0       0       0       0       0       0       0       0       0       0       0
      Totals:         1       5       0       0       0       0       0       0       0       0       0       0       0       0       0       0       0
Total ram usage:        6 bytes
 Hardware stack levels used:    1
 Hardware stack levels required when called:   16
 This function calls:
		_RF24M_getNodeID
		_RF24M_loadDHCP
		_RF24M_renewAddress
		_RF24N_begin
		_RF24N_setReturnSysMsgs
		_RF24_begin
		_RF24_setChannel
		_RF24_setDataRate
		_malloc
 This function is called by:
		_setup
 This function uses a non-reentrant model


 *************** function _RF24_begin *****************
 Defined at:
		line 598 in file "../../../RF24_cg/RF24_cg.c"
 Parameters:    Size  Location     Type
		None
 Auto vars:     Size  Location     Type
  setup           1   30[COMRAM] unsigned char 
 Return value:  Size  Location     Type
                  1    wreg      unsigned char 
 Registers used:
		wreg, status,2, status,0, cstack
 Tracked objects:
		On entry : 
		On exit  : 
		Unchanged: 
 Data sizes:     COMRAM   BANK0   BANK1   BANK2   BANK3   BANK4   BANK5   BANK6   BANK7   BANK8   BANK9  BANK10  BANK11  BANK12  BANK13  BANK14  BANK15
      Params:         0       0       0       0       0       0       0       0       0       0       0       0       0       0       0       0       0
      Locals:         2       0       0       0       0       0       0       0       0       0       0       0       0       0       0       0       0
      Temps:          0       0       0       0       0       0       0       0       0       0       0       0       0       0       0       0       0
      Totals:         2       0       0       0       0       0       0       0       0       0       0       0       0       0       0       0       0
Total ram usage:        2 bytes
 Hardware stack levels used:    1
 Hardware stack levels required when called:    6
 This function calls:
		_RF24_ce_d
		_RF24_csn_d
		_RF24_flush_rx
		_RF24_flush_tx
		_RF24_powerUp
		_RF24_read_register_d
		_RF24_setChannel
		_RF24_setDataRate
		_RF24_setRetries
		_RF24_toggle_features_d
		_RF24_write_register_d
		_SPI_begin
		_delay
		_pinMode
 This function is called by:
		_RF24M_begin
		_RF24E_setMac
 This function uses a non-reentrant model


 *************** function _pinMode *****************
 Defined at:
		line 8 in file "../../../RF24_c/utility/XC8/spi.c"
 Parameters:    Size  Location     Type
  pin             1    wreg     unsigned char 
  mode            1    2[COMRAM] unsigned char 
 Auto vars:     Size  Location     Type
  pin             1    3[COMRAM] unsigned char 
 Return value:  Size  Location     Type
                  1    wreg      void 
 Registers used:
		wreg, status,2, status,0
 Tracked objects:
		On entry : 
		On exit  : 
		Unchanged: 
 Data sizes:     COMRAM   BANK0   BANK1   BANK2   BANK3   BANK4   BANK5   BANK6   BANK7   BANK8   BANK9  BANK10  BANK11  BANK12  BANK13  BANK14  BANK15
      Params:         1       0       0       0       0       0       0       0       0       0       0       0       0       0       0       0       0
      Locals:         1       0       0       0       0       0       0       0       0       0       0       0       0       0       0       0       0
      Temps:          0       0       0       0       0       0       0       0       0       0       0       0       0       0       0       0       0
      Totals:         2       0       0       0       0       0       0       0       0       0       0       0       0       0       0       0       0
Total ram usage:        2 bytes
 Hardware stack levels used:    1
 Hardware stack levels required when called:    1
 This function calls:
		Nothing
 This function is called by:
		_setup
		_RF24_begin
 This function uses a non-reentrant model


 *************** function _SPI_begin *****************
 Defined at:
		line 224 in file "../../../RF24_c/utility/XC8/spi.c"
 Parameters:    Size  Location     Type
		None
 Auto vars:     Size  Location     Type
		None
 Return value:  Size  Location     Type
                  1    wreg      void 
 Registers used:
		wreg, status,2
 Tracked objects:
		On entry : 
		On exit  : 
		Unchanged: 
 Data sizes:     COMRAM   BANK0   BANK1   BANK2   BANK3   BANK4   BANK5   BANK6   BANK7   BANK8   BANK9  BANK10  BANK11  BANK12  BANK13  BANK14  BANK15
      Params:         0       0       0       0       0       0       0       0       0       0       0       0       0       0       0       0       0
      Locals:         0       0       0       0       0       0       0       0       0       0       0       0       0       0       0       0       0
      Temps:          0       0       0       0       0       0       0       0       0       0       0       0       0       0       0       0       0
      Totals:         0       0       0       0       0       0       0       0       0       0       0       0       0       0       0       0       0
Total ram usage:        0 bytes
 Hardware stack levels used:    1
 Hardware stack levels required when called:    1
 This function calls:
		Nothing
 This function is called by:
		_RF24_begin
 This function uses a non-reentrant model


 *************** function _RF24_toggle_features_d *****************
 Defined at:
		line 1266 in file "../../../RF24_cg/RF24_cg.c"
 Parameters:    Size  Location     Type
		None
 Auto vars:     Size  Location     Type
		None
 Return value:  Size  Location     Type
                  1    wreg      void 
 Registers used:
		wreg, status,2, status,0, cstack
 Tracked objects:
		On entry : 
		On exit  : 
		Unchanged: 
 Data sizes:     COMRAM   BANK0   BANK1   BANK2   BANK3   BANK4   BANK5   BANK6   BANK7   BANK8   BANK9  BANK10  BANK11  BANK12  BANK13  BANK14  BANK15
      Params:         0       0       0       0       0       0       0       0       0       0       0       0       0       0       0       0       0
      Locals:         0       0       0       0       0       0       0       0       0       0       0       0       0       0       0       0       0
      Temps:          0       0       0       0       0       0       0       0       0       0       0       0       0       0       0       0       0
      Totals:         0       0       0       0       0       0       0       0       0       0       0       0       0       0       0       0       0
Total ram usage:        0 bytes
 Hardware stack levels used:    1
 Hardware stack levels required when called:    4
 This function calls:
		_RF24_beginTransaction
		_RF24_endTransaction
		_SPI_transfer
 This function is called by:
		_RF24_begin
 This function uses a non-reentrant model


 *************** function _RF24_setDataRate *****************
 Defined at:
		line 1453 in file "../../../RF24_cg/RF24_cg.c"
 Parameters:    Size  Location     Type
  speed           1    wreg     enum E3388
 Auto vars:     Size  Location     Type
  speed           1   26[COMRAM] enum E3388
  setup           1   27[COMRAM] unsigned char 
  result          1   25[COMRAM] unsigned char 
 Return value:  Size  Location     Type
                  1    wreg      unsigned char 
 Registers used:
		wreg, status,2, status,0, cstack
 Tracked objects:
		On entry : 
		On exit  : 
		Unchanged: 
 Data sizes:     COMRAM   BANK0   BANK1   BANK2   BANK3   BANK4   BANK5   BANK6   BANK7   BANK8   BANK9  BANK10  BANK11  BANK12  BANK13  BANK14  BANK15
      Params:         0       0       0       0       0       0       0       0       0       0       0       0       0       0       0       0       0
      Locals:         3       0       0       0       0       0       0       0       0       0       0       0       0       0       0       0       0
      Temps:          0       0       0       0       0       0       0       0       0       0       0       0       0       0       0       0       0
      Totals:         3       0       0       0       0       0       0       0       0       0       0       0       0       0       0       0       0
Total ram usage:        3 bytes
 Hardware stack levels used:    1
 Hardware stack levels required when called:    5
 This function calls:
		_RF24_read_register_d
		_RF24_write_register_d
 This function is called by:
		_RF24_begin
		_RF24M_begin
 This function uses a non-reentrant model


 *************** function _RF24N_setReturnSysMsgs *****************
 Defined at:
		line 1419 in file "../../../RF24Network_cg/RF24Network_cg.c"
 Parameters:    Size  Location     Type
		None
 Auto vars:     Size  Location     Type
		None
 Return value:  Size  Location     Type
                  1    wreg      void 
 Registers used:
		None
 Tracked objects:
		On entry : 
		On exit  : 
		Unchanged: 
 Data sizes:     COMRAM   BANK0   BANK1   BANK2   BANK3   BANK4   BANK5   BANK6   BANK7   BANK8   BANK9  BANK10  BANK11  BANK12  BANK13  BANK14  BANK15
      Params:         0       0       0       0       0       0       0       0       0       0       0       0       0       0       0       0       0
      Locals:         0       0       0       0       0       0       0       0       0       0       0       0       0       0       0       0       0
      Temps:          0       0       0       0       0       0       0       0       0       0       0       0       0       0       0       0       0
      Totals:         0       0       0       0       0       0       0       0       0       0       0       0       0       0       0       0       0
Total ram usage:        0 bytes
 Hardware stack levels used:    1
 Hardware stack levels required when called:    1
 This function calls:
		Nothing
 This function is called by:
		_RF24M_begin
 This function uses a non-reentrant model


 *************** function _RF24M_loadDHCP *****************
 Defined at:
		line 517 in file "../../../RF24Mesh_cg/RF24Mesh_cg.c"
 Parameters:    Size  Location     Type
		None
 Auto vars:     Size  Location     Type
		None
 Return value:  Size  Location     Type
                  1    wreg      void 
 Registers used:
		None
 Tracked objects:
		On entry : 
		On exit  : 
		Unchanged: 
 Data sizes:     COMRAM   BANK0   BANK1   BANK2   BANK3   BANK4   BANK5   BANK6   BANK7   BANK8   BANK9  BANK10  BANK11  BANK12  BANK13  BANK14  BANK15
      Params:         0       0       0       0       0       0       0       0       0       0       0       0       0       0       0       0       0
      Locals:         0       0       0       0       0       0       0       0       0       0       0       0       0       0       0       0       0
      Temps:          0       0       0       0       0       0       0       0       0       0       0       0       0       0       0       0       0
      Totals:         0       0       0       0       0       0       0       0       0       0       0       0       0       0       0       0       0
Total ram usage:        0 bytes
 Hardware stack levels used:    1
 Hardware stack levels required when called:    1
 This function calls:
		Nothing
 This function is called by:
		_RF24M_begin
 This function uses a non-reentrant model


 *************** function _RF24E_set_gateway *****************
 Defined at:
		line 160 in file "../../../RF24Ethernet_cg/RF24Ethernet_cg.c"
 Parameters:    Size  Location     Type
  gwIP            2    2[COMRAM] PTR unsigned char 
		 -> setup@gwIP(4), 
 Auto vars:     Size  Location     Type
  ipaddr          4   12[COMRAM] unsigned int [2]
 Return value:  Size  Location     Type
                  1    wreg      void 
 Registers used:
		wreg, fsr2l, fsr2h, status,2, status,0
 Tracked objects:
		On entry : 
		On exit  : 
		Unchanged: 
 Data sizes:     COMRAM   BANK0   BANK1   BANK2   BANK3   BANK4   BANK5   BANK6   BANK7   BANK8   BANK9  BANK10  BANK11  BANK12  BANK13  BANK14  BANK15
      Params:         2       0       0       0       0       0       0       0       0       0       0       0       0       0       0       0       0
      Locals:         4       0       0       0       0       0       0       0       0       0       0       0       0       0       0       0       0
      Temps:          8       0       0       0       0       0       0       0       0       0       0       0       0       0       0       0       0
      Totals:        14       0       0       0       0       0       0       0       0       0       0       0       0       0       0       0       0
Total ram usage:       14 bytes
 Hardware stack levels used:    1
 Hardware stack levels required when called:    1
 This function calls:
		Nothing
 This function is called by:
		_setup
 This function uses a non-reentrant model


 *************** function _RF24E_init *****************
 Defined at:
		line 31 in file "../../../RF24Ethernet_cg/RF24Ethernet_cg.c"
 Parameters:    Size  Location     Type
		None
 Auto vars:     Size  Location     Type
		None
 Return value:  Size  Location     Type
                  1    wreg      void 
 Registers used:
		None
 Tracked objects:
		On entry : 
		On exit  : 
		Unchanged: 
 Data sizes:     COMRAM   BANK0   BANK1   BANK2   BANK3   BANK4   BANK5   BANK6   BANK7   BANK8   BANK9  BANK10  BANK11  BANK12  BANK13  BANK14  BANK15
      Params:         0       0       0       0       0       0       0       0       0       0       0       0       0       0       0       0       0
      Locals:         0       0       0       0       0       0       0       0       0       0       0       0       0       0       0       0       0
      Temps:          0       0       0       0       0       0       0       0       0       0       0       0       0       0       0       0       0
      Totals:         0       0       0       0       0       0       0       0       0       0       0       0       0       0       0       0       0
Total ram usage:        0 bytes
 Hardware stack levels used:    1
 Hardware stack levels required when called:    1
 This function calls:
		Nothing
 This function is called by:
		_setup
 This function uses a non-reentrant model


 *************** function _RF24E_begin_i *****************
 Defined at:
		line 85 in file "../../../RF24Ethernet_cg/RF24Ethernet_cg.c"
 Parameters:    Size  Location     Type
  ip              2   62[COMRAM] PTR unsigned char 
		 -> setup@myIP(4), 
 Auto vars:     Size  Location     Type
  dns             4   64[COMRAM] unsigned char [4]
 Return value:  Size  Location     Type
                  1    wreg      void 
 Registers used:
		wreg, fsr2l, fsr2h, status,2, status,0, prodl, prodh, cstack
 Tracked objects:
		On entry : 
		On exit  : 
		Unchanged: 
 Data sizes:     COMRAM   BANK0   BANK1   BANK2   BANK3   BANK4   BANK5   BANK6   BANK7   BANK8   BANK9  BANK10  BANK11  BANK12  BANK13  BANK14  BANK15
      Params:         2       0       0       0       0       0       0       0       0       0       0       0       0       0       0       0       0
      Locals:         4       0       0       0       0       0       0       0       0       0       0       0       0       0       0       0       0
      Temps:          0       0       0       0       0       0       0       0       0       0       0       0       0       0       0       0       0
      Totals:         6       0       0       0       0       0       0       0       0       0       0       0       0       0       0       0       0
Total ram usage:        6 bytes
 Hardware stack levels used:    1
 Hardware stack levels required when called:    8
 This function calls:
		_RF24E_begin_id
 This function is called by:
		_setup
 This function uses a non-reentrant model


 *************** function _RF24E_begin_id *****************
 Defined at:
		line 95 in file "../../../RF24Ethernet_cg/RF24Ethernet_cg.c"
 Parameters:    Size  Location     Type
  ip              2   54[COMRAM] PTR unsigned char 
		 -> setup@myIP(4), 
  dns             2   56[COMRAM] PTR unsigned char 
		 -> RF24E_begin_i@dns(4), 
 Auto vars:     Size  Location     Type
  gateway         4   58[COMRAM] unsigned char [4]
 Return value:  Size  Location     Type
                  1    wreg      void 
 Registers used:
		wreg, fsr2l, fsr2h, status,2, status,0, prodl, prodh, cstack
 Tracked objects:
		On entry : 
		On exit  : 
		Unchanged: 
 Data sizes:     COMRAM   BANK0   BANK1   BANK2   BANK3   BANK4   BANK5   BANK6   BANK7   BANK8   BANK9  BANK10  BANK11  BANK12  BANK13  BANK14  BANK15
      Params:         4       0       0       0       0       0       0       0       0       0       0       0       0       0       0       0       0
      Locals:         4       0       0       0       0       0       0       0       0       0       0       0       0       0       0       0       0
      Temps:          0       0       0       0       0       0       0       0       0       0       0       0       0       0       0       0       0
      Totals:         8       0       0       0       0       0       0       0       0       0       0       0       0       0       0       0       0
Total ram usage:        8 bytes
 Hardware stack levels used:    1
 Hardware stack levels required when called:    7
 This function calls:
		_RF24E_begin_idg
 This function is called by:
		_RF24E_begin_i
 This function uses a non-reentrant model


 *************** function _RF24E_begin_idg *****************
 Defined at:
		line 105 in file "../../../RF24Ethernet_cg/RF24Ethernet_cg.c"
 Parameters:    Size  Location     Type
  ip              2   44[COMRAM] PTR unsigned char 
		 -> setup@myIP(4), 
  dns             2   46[COMRAM] PTR unsigned char 
		 -> RF24E_begin_i@dns(4), 
  gateway         2   48[COMRAM] PTR unsigned char 
		 -> RF24E_begin_id@gateway(4), 
 Auto vars:     Size  Location     Type
  subnet          4   50[COMRAM] unsigned char [4]
 Return value:  Size  Location     Type
                  1    wreg      void 
 Registers used:
		wreg, fsr2l, fsr2h, status,2, status,0, prodl, prodh, cstack
 Tracked objects:
		On entry : 
		On exit  : 
		Unchanged: 
 Data sizes:     COMRAM   BANK0   BANK1   BANK2   BANK3   BANK4   BANK5   BANK6   BANK7   BANK8   BANK9  BANK10  BANK11  BANK12  BANK13  BANK14  BANK15
      Params:         6       0       0       0       0       0       0       0       0       0       0       0       0       0       0       0       0
      Locals:         4       0       0       0       0       0       0       0       0       0       0       0       0       0       0       0       0
      Temps:          0       0       0       0       0       0       0       0       0       0       0       0       0       0       0       0       0
      Totals:        10       0       0       0       0       0       0       0       0       0       0       0       0       0       0       0       0
Total ram usage:       10 bytes
 Hardware stack levels used:    1
 Hardware stack levels required when called:    6
 This function calls:
		_RF24E_begin_idgs
 This function is called by:
		_RF24E_begin_id
 This function uses a non-reentrant model


 *************** function _RF24E_begin_idgs *****************
 Defined at:
		line 115 in file "../../../RF24Ethernet_cg/RF24Ethernet_cg.c"
 Parameters:    Size  Location     Type
  ip              2   36[COMRAM] PTR unsigned char 
		 -> setup@myIP(4), 
  dns             2   38[COMRAM] PTR unsigned char 
		 -> RF24E_begin_i@dns(4), 
  gateway         2   40[COMRAM] PTR unsigned char 
		 -> RF24E_begin_id@gateway(4), 
  subnet          2   42[COMRAM] PTR unsigned char 
		 -> RF24E_begin_idg@subnet(4), 
 Auto vars:     Size  Location     Type
		None
 Return value:  Size  Location     Type
                  1    wreg      void 
 Registers used:
		wreg, fsr2l, fsr2h, status,2, status,0, prodl, prodh, cstack
 Tracked objects:
		On entry : 
		On exit  : 
		Unchanged: 
 Data sizes:     COMRAM   BANK0   BANK1   BANK2   BANK3   BANK4   BANK5   BANK6   BANK7   BANK8   BANK9  BANK10  BANK11  BANK12  BANK13  BANK14  BANK15
      Params:         8       0       0       0       0       0       0       0       0       0       0       0       0       0       0       0       0
      Locals:         0       0       0       0       0       0       0       0       0       0       0       0       0       0       0       0       0
      Temps:          0       0       0       0       0       0       0       0       0       0       0       0       0       0       0       0       0
      Totals:         8       0       0       0       0       0       0       0       0       0       0       0       0       0       0       0       0
Total ram usage:        8 bytes
 Hardware stack levels used:    1
 Hardware stack levels required when called:    5
 This function calls:
		_RF24E_configure
 This function is called by:
		_RF24E_begin_idg
 This function uses a non-reentrant model


 *************** function _RF24E_configure *****************
 Defined at:
		line 123 in file "../../../RF24Ethernet_cg/RF24Ethernet_cg.c"
 Parameters:    Size  Location     Type
  ip              2   16[COMRAM] PTR unsigned char 
		 -> setup@myIP(4), 
  dns             2   18[COMRAM] PTR unsigned char 
		 -> RF24E_begin_i@dns(4), 
  gateway         2   20[COMRAM] PTR unsigned char 
		 -> RF24E_begin_id@gateway(4), 
  subnet          2   22[COMRAM] PTR unsigned char 
		 -> RF24E_begin_idg@subnet(4), 
 Auto vars:     Size  Location     Type
  ipaddr          4   32[COMRAM] unsigned int [2]
 Return value:  Size  Location     Type
                  1    wreg      void 
 Registers used:
		wreg, fsr2l, fsr2h, status,2, status,0, prodl, prodh, cstack
 Tracked objects:
		On entry : 
		On exit  : 
		Unchanged: 
 Data sizes:     COMRAM   BANK0   BANK1   BANK2   BANK3   BANK4   BANK5   BANK6   BANK7   BANK8   BANK9  BANK10  BANK11  BANK12  BANK13  BANK14  BANK15
      Params:         8       0       0       0       0       0       0       0       0       0       0       0       0       0       0       0       0
      Locals:         4       0       0       0       0       0       0       0       0       0       0       0       0       0       0       0       0
      Temps:          8       0       0       0       0       0       0       0       0       0       0       0       0       0       0       0       0
      Totals:        20       0       0       0       0       0       0       0       0       0       0       0       0       0       0       0       0
Total ram usage:       20 bytes
 Hardware stack levels used:    1
 Hardware stack levels required when called:    4
 This function calls:
		_RF24M_setNodeID
		_RF24N_getFrag_ptr
		_timer_set
		_uip_init
 This function is called by:
		_RF24E_begin_idgs
 This function uses a non-reentrant model


 *************** function _uip_init *****************
 Defined at:
		line 387 in file "../../utility/uip.c"
 Parameters:    Size  Location     Type
		None
 Auto vars:     Size  Location     Type
		None
 Return value:  Size  Location     Type
                  1    wreg      void 
 Registers used:
		wreg, fsr2l, fsr2h, status,2, status,0, prodl, prodh
 Tracked objects:
		On entry : 
		On exit  : 
		Unchanged: 
 Data sizes:     COMRAM   BANK0   BANK1   BANK2   BANK3   BANK4   BANK5   BANK6   BANK7   BANK8   BANK9  BANK10  BANK11  BANK12  BANK13  BANK14  BANK15
      Params:         0       0       0       0       0       0       0       0       0       0       0       0       0       0       0       0       0
      Locals:         0       0       0       0       0       0       0       0       0       0       0       0       0       0       0       0       0
      Temps:          0       0       0       0       0       0       0       0       0       0       0       0       0       0       0       0       0
      Totals:         0       0       0       0       0       0       0       0       0       0       0       0       0       0       0       0       0
Total ram usage:        0 bytes
 Hardware stack levels used:    1
 Hardware stack levels required when called:    1
 This function calls:
		Nothing
 This function is called by:
		_RF24E_configure
 This function uses a non-reentrant model


 *************** function _timer_set *****************
 Defined at:
		line 64 in file "../../utility/timer.c"
 Parameters:    Size  Location     Type
  t               2   10[COMRAM] PTR struct timer
		 -> ec(22), 
  interval        4   12[COMRAM] unsigned long 
 Auto vars:     Size  Location     Type
		None
 Return value:  Size  Location     Type
                  1    wreg      void 
 Registers used:
		wreg, fsr2l, fsr2h, status,2, status,0, cstack
 Tracked objects:
		On entry : 
		On exit  : 
		Unchanged: 
 Data sizes:     COMRAM   BANK0   BANK1   BANK2   BANK3   BANK4   BANK5   BANK6   BANK7   BANK8   BANK9  BANK10  BANK11  BANK12  BANK13  BANK14  BANK15
      Params:         6       0       0       0       0       0       0       0       0       0       0       0       0       0       0       0       0
      Locals:         0       0       0       0       0       0       0       0       0       0       0       0       0       0       0       0       0
      Temps:          0       0       0       0       0       0       0       0       0       0       0       0       0       0       0       0       0
      Totals:         6       0       0       0       0       0       0       0       0       0       0       0       0       0       0       0       0
Total ram usage:        6 bytes
 Hardware stack levels used:    1
 Hardware stack levels required when called:    3
 This function calls:
		_clock_time
 This function is called by:
		_RF24E_configure
 This function uses a non-reentrant model


 *************** function _RF24M_setNodeID *****************
 Defined at:
		line 476 in file "../../../RF24Mesh_cg/RF24Mesh_cg.c"
 Parameters:    Size  Location     Type
  nodeID          1    wreg     unsigned char 
 Auto vars:     Size  Location     Type
  nodeID          1    2[COMRAM] unsigned char 
 Return value:  Size  Location     Type
                  1    wreg      void 
 Registers used:
		wreg
 Tracked objects:
		On entry : 
		On exit  : 
		Unchanged: 
 Data sizes:     COMRAM   BANK0   BANK1   BANK2   BANK3   BANK4   BANK5   BANK6   BANK7   BANK8   BANK9  BANK10  BANK11  BANK12  BANK13  BANK14  BANK15
      Params:         0       0       0       0       0       0       0       0       0       0       0       0       0       0       0       0       0
      Locals:         1       0       0       0       0       0       0       0       0       0       0       0       0       0       0       0       0
      Temps:          0       0       0       0       0       0       0       0       0       0       0       0       0       0       0       0       0
      Totals:         1       0       0       0       0       0       0       0       0       0       0       0       0       0       0       0       0
Total ram usage:        1 bytes
 Hardware stack levels used:    1
 Hardware stack levels required when called:    1
 This function calls:
		Nothing
 This function is called by:
		_RF24E_configure
 This function uses a non-reentrant model


 *************** function _RF24ES_init *****************
 Defined at:
		line 29 in file "../../../RF24Ethernet_cg/RF24Server_cg.c"
 Parameters:    Size  Location     Type
  port            2    7[COMRAM] unsigned int 
 Auto vars:     Size  Location     Type
		None
 Return value:  Size  Location     Type
                  1    wreg      void 
 Registers used:
		wreg, status,2, cstack
 Tracked objects:
		On entry : 
		On exit  : 
		Unchanged: 
 Data sizes:     COMRAM   BANK0   BANK1   BANK2   BANK3   BANK4   BANK5   BANK6   BANK7   BANK8   BANK9  BANK10  BANK11  BANK12  BANK13  BANK14  BANK15
      Params:         2       0       0       0       0       0       0       0       0       0       0       0       0       0       0       0       0
      Locals:         0       0       0       0       0       0       0       0       0       0       0       0       0       0       0       0       0
      Temps:          0       0       0       0       0       0       0       0       0       0       0       0       0       0       0       0       0
      Totals:         2       0       0       0       0       0       0       0       0       0       0       0       0       0       0       0       0
Total ram usage:        2 bytes
 Hardware stack levels used:    1
 Hardware stack levels required when called:    2
 This function calls:
		_htons
 This function is called by:
		_setup
 This function uses a non-reentrant model


 *************** function _RF24ES_begin *****************
 Defined at:
		line 52 in file "../../../RF24Ethernet_cg/RF24Server_cg.c"
 Parameters:    Size  Location     Type
		None
 Auto vars:     Size  Location     Type
		None
 Return value:  Size  Location     Type
                  1    wreg      void 
 Registers used:
		wreg, fsr0l, fsr0h, fsr1l, fsr1h, fsr2l, fsr2h, status,2, status,0, pclat, btemp, btemp+1, btemp+2, btemp+3, btemp+4, btemp+5, btemp+6, btemp+7, btemp+8, btemp+9, btemp+10, btemp+11, tosl, structret, tblptrl, tblptrh, tblptru, prodl, prodh, bsr, cstack
 Tracked objects:
		On entry : 
		On exit  : 
		Unchanged: 
 Data sizes:     COMRAM   BANK0   BANK1   BANK2   BANK3   BANK4   BANK5   BANK6   BANK7   BANK8   BANK9  BANK10  BANK11  BANK12  BANK13  BANK14  BANK15
      Params:         0       0       0       0       0       0       0       0       0       0       0       0       0       0       0       0       0
      Locals:         0       0       0       0       0       0       0       0       0       0       0       0       0       0       0       0       0
      Temps:          0       0       0       0       0       0       0       0       0       0       0       0       0       0       0       0       0
      Totals:         0       0       0       0       0       0       0       0       0       0       0       0       0       0       0       0       0
Total ram usage:        0 bytes
 Hardware stack levels used:    1
 Hardware stack levels required when called:   15
 This function calls:
		_RF24E_tick
		_uip_listen
 This function is called by:
		_setup
 This function uses a non-reentrant model


 *************** function _uip_listen *****************
 Defined at:
		line 537 in file "../../utility/uip.c"
 Parameters:    Size  Location     Type
  port            2    2[COMRAM] unsigned int 
 Auto vars:     Size  Location     Type
		None
 Return value:  Size  Location     Type
                  1    wreg      void 
 Registers used:
		wreg, fsr2l, fsr2h, status,2, status,0, prodl, prodh
 Tracked objects:
		On entry : 
		On exit  : 
		Unchanged: 
 Data sizes:     COMRAM   BANK0   BANK1   BANK2   BANK3   BANK4   BANK5   BANK6   BANK7   BANK8   BANK9  BANK10  BANK11  BANK12  BANK13  BANK14  BANK15
      Params:         2       0       0       0       0       0       0       0       0       0       0       0       0       0       0       0       0
      Locals:         0       0       0       0       0       0       0       0       0       0       0       0       0       0       0       0       0
      Temps:          2       0       0       0       0       0       0       0       0       0       0       0       0       0       0       0       0
      Totals:         4       0       0       0       0       0       0       0       0       0       0       0       0       0       0       0       0
Total ram usage:        4 bytes
 Hardware stack levels used:    1
 Hardware stack levels required when called:    1
 This function calls:
		Nothing
 This function is called by:
		_RF24ES_begin
		_RF24E_listen
 This function uses a non-reentrant model


 *************** function _loop *****************
 Defined at:
		line 81 in file "InteractiveServer_Mesh.c"
 Parameters:    Size  Location     Type
		None
 Auto vars:     Size  Location     Type
  buf             3    2[BANK2 ] unsigned char [3]
  pageReq         1    5[BANK2 ] unsigned char 
  size            2    0[BANK2 ] unsigned int 
 Return value:  Size  Location     Type
                  1    wreg      void 
 Registers used:
		wreg, fsr0l, fsr0h, fsr1l, fsr1h, fsr2l, fsr2h, status,2, status,0, pclat, btemp, btemp+1, btemp+2, btemp+3, btemp+4, btemp+5, btemp+6, btemp+7, btemp+8, btemp+9, btemp+10, btemp+11, tosl, structret, tblptrl, tblptrh, tblptru, prodl, prodh, bsr, cstack
 Tracked objects:
		On entry : 
		On exit  : 
		Unchanged: 
 Data sizes:     COMRAM   BANK0   BANK1   BANK2   BANK3   BANK4   BANK5   BANK6   BANK7   BANK8   BANK9  BANK10  BANK11  BANK12  BANK13  BANK14  BANK15
      Params:         0       0       0       0       0       0       0       0       0       0       0       0       0       0       0       0       0
      Locals:         0       0       0       6       0       0       0       0       0       0       0       0       0       0       0       0       0
      Temps:          0       8       0       0       0       0       0       0       0       0       0       0       0       0       0       0       0
      Totals:         0       8       0       6       0       0       0       0       0       0       0       0       0       0       0       0       0
Total ram usage:       14 bytes
 Hardware stack levels used:    1
 Hardware stack levels required when called:   19
 This function calls:
		_RF24EC_available
		_RF24EC_findUntil
		_RF24EC_flush
		_RF24EC_read
		_RF24EC_stop
		_RF24EC_valid
		_RF24ES_available
		_RF24M_checkConnection
		_RF24M_renewAddress
		_Serial_println
		_credits_page
		_digitalWrite
		_generate_tcp_stats
		_main_page
		_millis
		_stats_page
		_strcmp
 This function is called by:
		_main
 This function uses a non-reentrant model


 *************** function _strcmp *****************
 Defined at:
		line 33 in file "/opt/microchip/xc8/v1.38/sources/common/strcmp.c"
 Parameters:    Size  Location     Type
  s1              2    2[COMRAM] PTR const unsigned char 
		 -> loop@buf(3), 
  s2              2    4[COMRAM] PTR const unsigned char 
		 -> STR_26(3), STR_25(3), STR_24(3), STR_23(3), 
 Auto vars:     Size  Location     Type
  r               1    7[COMRAM] char 
 Return value:  Size  Location     Type
                  2    2[COMRAM] int 
 Registers used:
		wreg, fsr2l, fsr2h, status,2, status,0, tblptrl, tblptrh, tblptru
 Tracked objects:
		On entry : 
		On exit  : 
		Unchanged: 
 Data sizes:     COMRAM   BANK0   BANK1   BANK2   BANK3   BANK4   BANK5   BANK6   BANK7   BANK8   BANK9  BANK10  BANK11  BANK12  BANK13  BANK14  BANK15
      Params:         4       0       0       0       0       0       0       0       0       0       0       0       0       0       0       0       0
      Locals:         1       0       0       0       0       0       0       0       0       0       0       0       0       0       0       0       0
      Temps:          1       0       0       0       0       0       0       0       0       0       0       0       0       0       0       0       0
      Totals:         6       0       0       0       0       0       0       0       0       0       0       0       0       0       0       0       0
Total ram usage:        6 bytes
 Hardware stack levels used:    1
 Hardware stack levels required when called:    1
 This function calls:
		Nothing
 This function is called by:
		_loop
 This function uses a non-reentrant model


 *************** function _stats_page *****************
 Defined at:
		line 155 in file "HTML.h"
 Parameters:    Size  Location     Type
		None
 Auto vars:     Size  Location     Type
  buffer         45   44[BANK0 ] unsigned char [45]
  hours           4   98[BANK0 ] unsigned long 
  minutes         4   94[BANK0 ] unsigned long 
  seconds         4   90[BANK0 ] unsigned long 
  days            1   89[BANK0 ] unsigned char 
 Return value:  Size  Location     Type
                  1    wreg      void 
 Registers used:
		wreg, fsr0l, fsr0h, fsr1l, fsr1h, fsr2l, fsr2h, status,2, status,0, pclat, btemp, btemp+1, btemp+2, btemp+3, btemp+4, btemp+5, btemp+6, btemp+7, btemp+8, btemp+9, btemp+10, btemp+11, tosl, structret, tblptrl, tblptrh, tblptru, prodl, prodh, bsr, cstack
 Tracked objects:
		On entry : 
		On exit  : 
		Unchanged: 
 Data sizes:     COMRAM   BANK0   BANK1   BANK2   BANK3   BANK4   BANK5   BANK6   BANK7   BANK8   BANK9  BANK10  BANK11  BANK12  BANK13  BANK14  BANK15
      Params:         0       0       0       0       0       0       0       0       0       0       0       0       0       0       0       0       0
      Locals:         0      58       0       0       0       0       0       0       0       0       0       0       0       0       0       0       0
      Temps:          0       0       0       0       0       0       0       0       0       0       0       0       0       0       0       0       0
      Totals:         0      58       0       0       0       0       0       0       0       0       0       0       0       0       0       0       0
Total ram usage:       58 bytes
 Hardware stack levels used:    1
 Hardware stack levels required when called:   18
 This function calls:
		_RF24EC_write_s
		___lldiv
		___llmod
		_millis
		_sprintf
		_strncpy
 This function is called by:
		_loop
 This function uses a non-reentrant model


 *************** function _strncpy *****************
 Defined at:
		line 8 in file "/opt/microchip/xc8/v1.38/sources/common/strncpy.c"
 Parameters:    Size  Location     Type
  to              2    2[COMRAM] PTR unsigned char 
		 -> stats_page@buffer(45), 
  from            2    4[COMRAM] PTR const unsigned char 
		 -> STR_19(35), STR_18(27), STR_15(41), STR_13(39), 
		 -> STR_12(45), STR_11(44), STR_10(43), STR_9(41), 
  size            2    6[COMRAM] unsigned int 
 Auto vars:     Size  Location     Type
  cp              2    8[COMRAM] PTR unsigned char 
		 -> stats_page@buffer(45), 
 Return value:  Size  Location     Type
                  2    2[COMRAM] PTR unsigned char 
 Registers used:
		wreg, fsr2l, fsr2h, status,2, status,0, tblptrl, tblptrh, tblptru
 Tracked objects:
		On entry : 
		On exit  : 
		Unchanged: 
 Data sizes:     COMRAM   BANK0   BANK1   BANK2   BANK3   BANK4   BANK5   BANK6   BANK7   BANK8   BANK9  BANK10  BANK11  BANK12  BANK13  BANK14  BANK15
      Params:         6       0       0       0       0       0       0       0       0       0       0       0       0       0       0       0       0
      Locals:         2       0       0       0       0       0       0       0       0       0       0       0       0       0       0       0       0
      Temps:          0       0       0       0       0       0       0       0       0       0       0       0       0       0       0       0       0
      Totals:         8       0       0       0       0       0       0       0       0       0       0       0       0       0       0       0       0
Total ram usage:        8 bytes
 Hardware stack levels used:    1
 Hardware stack levels required when called:    1
 This function calls:
		Nothing
 This function is called by:
		_stats_page
 This function uses a non-reentrant model


 *************** function _main_page *****************
 Defined at:
		line 107 in file "HTML.h"
 Parameters:    Size  Location     Type
		None
 Auto vars:     Size  Location     Type
  bf            103    0[BANK1 ] unsigned char [103]
  lColor          2  107[BANK1 ] PTR const unsigned char 
		 -> STR_4(10), STR_3(15), 
  lState          2  105[BANK1 ] PTR const unsigned char 
		 -> STR_2(4), STR_1(3), 
  html_pointer    2  103[BANK1 ] PTR const unsigned char 
		 -> main_html_p1(300), begin_html(208), 
 Return value:  Size  Location     Type
                  1    wreg      void 
 Registers used:
		wreg, fsr0l, fsr0h, fsr1l, fsr1h, fsr2l, fsr2h, status,2, status,0, pclat, btemp, btemp+1, btemp+2, btemp+3, btemp+4, btemp+5, btemp+6, btemp+7, btemp+8, btemp+9, btemp+10, btemp+11, tosl, structret, tblptrl, tblptrh, tblptru, prodl, prodh, bsr, cstack
 Tracked objects:
		On entry : 
		On exit  : 
		Unchanged: 
 Data sizes:     COMRAM   BANK0   BANK1   BANK2   BANK3   BANK4   BANK5   BANK6   BANK7   BANK8   BANK9  BANK10  BANK11  BANK12  BANK13  BANK14  BANK15
      Params:         0       0       0       0       0       0       0       0       0       0       0       0       0       0       0       0       0
      Locals:         0       0     109       0       0       0       0       0       0       0       0       0       0       0       0       0       0
      Temps:          0       0       0       0       0       0       0       0       0       0       0       0       0       0       0       0       0
      Totals:         0       0     109       0       0       0       0       0       0       0       0       0       0       0       0       0       0
Total ram usage:      109 bytes
 Hardware stack levels used:    1
 Hardware stack levels required when called:   18
 This function calls:
		_RF24EC_write_s
		_sendPage
		_sprintf
 This function is called by:
		_loop
 This function uses a non-reentrant model


 *************** function _sprintf *****************
 Defined at:
		line 13 in file "/opt/microchip/xc8/v1.38/sources/common/sprintf.c"
 Parameters:    Size  Location     Type
  wh              2   64[COMRAM] PTR unsigned char 
		 -> stats_page@buffer(45), main_page@bf(103), 
  f               2   66[COMRAM] PTR const unsigned char 
		 -> STR_17(39), STR_16(41), STR_14(35), STR_8(21), 
		 -> STR_7(31), STR_6(21), STR_5(21), 
 Auto vars:     Size  Location     Type
  pb              4   84[COMRAM] struct __prbuf
  ap              2   82[COMRAM] PTR void [1]
		 -> ?_sprintf(2), ?_printf(2), 
 Return value:  Size  Location     Type
                  2   64[COMRAM] int 
 Registers used:
		wreg, fsr0l, fsr0h, fsr2l, fsr2h, status,2, status,0, pclat, tosl, tblptrl, tblptrh, tblptru, prodl, prodh, cstack
 Tracked objects:
		On entry : 
		On exit  : 
		Unchanged: 
 Data sizes:     COMRAM   BANK0   BANK1   BANK2   BANK3   BANK4   BANK5   BANK6   BANK7   BANK8   BANK9  BANK10  BANK11  BANK12  BANK13  BANK14  BANK15
      Params:        18       0       0       0       0       0       0       0       0       0       0       0       0       0       0       0       0
      Locals:         6       0       0       0       0       0       0       0       0       0       0       0       0       0       0       0       0
      Temps:          0       0       0       0       0       0       0       0       0       0       0       0       0       0       0       0       0
      Totals:        24       0       0       0       0       0       0       0       0       0       0       0       0       0       0       0       0
Total ram usage:       24 bytes
 Hardware stack levels used:    1
 Hardware stack levels required when called:    3
 This function calls:
		__doprnt
 This function is called by:
		_main_page
		_stats_page
 This function uses a non-reentrant model


 *************** function __doprnt *****************
 Defined at:
		line 458 in file "/opt/microchip/xc8/v1.38/sources/common/doprnt.c"
 Parameters:    Size  Location     Type
  pb              2   28[COMRAM] PTR struct __prbuf
		 -> sprintf@pb(4), printf@pb(4), 
  f               2   30[COMRAM] PTR const unsigned char 
		 -> STR_37(65), STR_17(39), STR_16(41), STR_14(35), 
		 -> STR_8(21), STR_7(31), STR_6(21), STR_5(21), 
  ap              2   32[COMRAM] PTR PTR void 
		 -> sprintf@ap(2), printf@ap(2), 
 Auto vars:     Size  Location     Type
  idx             1   38[COMRAM] unsigned char 
  val             4   53[COMRAM] unsigned long 
  tmpval          4    0        struct .
  flag            2   62[COMRAM] unsigned short 
  width           2   59[COMRAM] int 
  prec            2   57[COMRAM] int 
  len             2   51[COMRAM] unsigned int 
  cp              2   49[COMRAM] PTR const unsigned char 
		 -> ?_sprintf(2), ?_printf(2), STR_38(7), _doprnt@c(1), 
		 -> NULL(0), stats_page@buffer(45), main_page@bf(103), STR_4(10), 
		 -> STR_3(15), STR_2(4), STR_1(3), 
  c               1   61[COMRAM] char 
 Return value:  Size  Location     Type
                  2   28[COMRAM] int 
 Registers used:
		wreg, fsr0l, fsr0h, fsr2l, fsr2h, status,2, status,0, pclat, tosl, tblptrl, tblptrh, tblptru, prodl, prodh, cstack
 Tracked objects:
		On entry : 
		On exit  : 
		Unchanged: 
 Data sizes:     COMRAM   BANK0   BANK1   BANK2   BANK3   BANK4   BANK5   BANK6   BANK7   BANK8   BANK9  BANK10  BANK11  BANK12  BANK13  BANK14  BANK15
      Params:         6       0       0       0       0       0       0       0       0       0       0       0       0       0       0       0       0
      Locals:        26       0       0       0       0       0       0       0       0       0       0       0       0       0       0       0       0
      Temps:          4       0       0       0       0       0       0       0       0       0       0       0       0       0       0       0       0
      Totals:        36       0       0       0       0       0       0       0       0       0       0       0       0       0       0       0       0
Total ram usage:       36 bytes
 Hardware stack levels used:    1
 Hardware stack levels required when called:    2
 This function calls:
		Absolute function
		___lldiv
		___llmod
		___wmul
		_isdigit
		_putch
 This function is called by:
		_sprintf
		_printf
 This function uses a non-reentrant model


 *************** function _putch *****************
 Defined at:
		line 7 in file "/opt/microchip/xc8/v1.38/sources/common/putch.c"
 Parameters:    Size  Location     Type
  c               1    wreg     unsigned char 
 Auto vars:     Size  Location     Type
  c               1    0[COMRAM] unsigned char 
 Return value:  Size  Location     Type
                  1    wreg      void 
 Registers used:
		wreg
 Tracked objects:
		On entry : 
		On exit  : 
		Unchanged: 
 Data sizes:     COMRAM   BANK0   BANK1   BANK2   BANK3   BANK4   BANK5   BANK6   BANK7   BANK8   BANK9  BANK10  BANK11  BANK12  BANK13  BANK14  BANK15
      Params:         0       0       0       0       0       0       0       0       0       0       0       0       0       0       0       0       0
      Locals:         0       0       0       0       0       0       0       0       0       0       0       0       0       0       0       0       0
      Temps:          0       0       0       0       0       0       0       0       0       0       0       0       0       0       0       0       0
      Totals:         0       0       0       0       0       0       0       0       0       0       0       0       0       0       0       0       0
Total ram usage:        0 bytes
 Hardware stack levels used:    1
 Hardware stack levels required when called:    1
 This function calls:
		Nothing
 This function is called by:
		__doprnt
		_printf
 This function uses a non-reentrant model


 *************** function _isdigit *****************
 Defined at:
		line 8 in file "/opt/microchip/xc8/v1.38/sources/common/isdigit.c"
 Parameters:    Size  Location     Type
  c               1    wreg     unsigned char 
 Auto vars:     Size  Location     Type
  c               1    4[COMRAM] unsigned char 
 Return value:  Size  Location     Type
		None               void
 Registers used:
		wreg, status,2, status,0
 Tracked objects:
		On entry : 
		On exit  : 
		Unchanged: 
 Data sizes:     COMRAM   BANK0   BANK1   BANK2   BANK3   BANK4   BANK5   BANK6   BANK7   BANK8   BANK9  BANK10  BANK11  BANK12  BANK13  BANK14  BANK15
      Params:         0       0       0       0       0       0       0       0       0       0       0       0       0       0       0       0       0
      Locals:         2       0       0       0       0       0       0       0       0       0       0       0       0       0       0       0       0
      Temps:          1       0       0       0       0       0       0       0       0       0       0       0       0       0       0       0       0
      Totals:         3       0       0       0       0       0       0       0       0       0       0       0       0       0       0       0       0
Total ram usage:        3 bytes
 Hardware stack levels used:    1
 Hardware stack levels required when called:    1
 This function calls:
		Nothing
 This function is called by:
		__doprnt
 This function uses a non-reentrant model


 *************** function _RF24EC_write_s *****************
 Defined at:
		line 187 in file "../../../RF24Ethernet_cg/RF24Client_cg.c"
 Parameters:    Size  Location     Type
  str             2   42[BANK0 ] PTR const unsigned char 
		 -> stats_page@buffer(45), main_page@bf(103), 
 Auto vars:     Size  Location     Type
		None
 Return value:  Size  Location     Type
                  2   42[BANK0 ] unsigned int 
 Registers used:
		wreg, fsr0l, fsr0h, fsr1l, fsr1h, fsr2l, fsr2h, status,2, status,0, pclat, btemp, btemp+1, btemp+2, btemp+3, btemp+4, btemp+5, btemp+6, btemp+7, btemp+8, btemp+9, btemp+10, btemp+11, tosl, structret, tblptrl, tblptrh, tblptru, prodl, prodh, bsr, cstack
 Tracked objects:
		On entry : 
		On exit  : 
		Unchanged: 
 Data sizes:     COMRAM   BANK0   BANK1   BANK2   BANK3   BANK4   BANK5   BANK6   BANK7   BANK8   BANK9  BANK10  BANK11  BANK12  BANK13  BANK14  BANK15
      Params:         0       2       0       0       0       0       0       0       0       0       0       0       0       0       0       0       0
      Locals:         0       0       0       0       0       0       0       0       0       0       0       0       0       0       0       0       0
      Temps:          0       0       0       0       0       0       0       0       0       0       0       0       0       0       0       0       0
      Totals:         0       2       0       0       0       0       0       0       0       0       0       0       0       0       0       0       0
Total ram usage:        2 bytes
 Hardware stack levels used:    1
 Hardware stack levels required when called:   17
 This function calls:
		_RF24EC_write
		_strlen
 This function is called by:
		_main_page
		_stats_page
 This function uses a non-reentrant model


 *************** function _generate_tcp_stats *****************
 Defined at:
		line 163 in file "InteractiveServer_Mesh.c"
 Parameters:    Size  Location     Type
		None
 Auto vars:     Size  Location     Type
  i               1   61[COMRAM] unsigned char 
  conn            2   62[COMRAM] PTR struct uip_conn
		 -> uip_conns(30), 
 Return value:  Size  Location     Type
                  2   44[None  ] unsigned short 
 Registers used:
		wreg, fsr0l, fsr0h, fsr2l, fsr2h, status,2, status,0, tblptrl, tblptrh, tblptru, prodl, prodh, cstack
 Tracked objects:
		On entry : 
		On exit  : 
		Unchanged: 
 Data sizes:     COMRAM   BANK0   BANK1   BANK2   BANK3   BANK4   BANK5   BANK6   BANK7   BANK8   BANK9  BANK10  BANK11  BANK12  BANK13  BANK14  BANK15
      Params:         0       0       0       0       0       0       0       0       0       0       0       0       0       0       0       0       0
      Locals:         5       0       0       0       0       0       0       0       0       0       0       0       0       0       0       0       0
      Temps:          3       0       0       0       0       0       0       0       0       0       0       0       0       0       0       0       0
      Totals:         8       0       0       0       0       0       0       0       0       0       0       0       0       0       0       0       0
Total ram usage:        8 bytes
 Hardware stack levels used:    1
 Hardware stack levels required when called:    4
 This function calls:
		_Serial_print
		_Serial_println
		_htons
		_itoa_
 This function is called by:
		_loop
 This function uses a non-reentrant model


 *************** function _itoa_ *****************
 Defined at:
		line 105 in file "serial.c"
 Parameters:    Size  Location     Type
  val             4   41[COMRAM] unsigned long 
 Auto vars:     Size  Location     Type
		None
 Return value:  Size  Location     Type
                  2   41[COMRAM] PTR const unsigned char 
 Registers used:
		wreg, fsr2l, fsr2h, status,2, status,0, cstack
 Tracked objects:
		On entry : 
		On exit  : 
		Unchanged: 
 Data sizes:     COMRAM   BANK0   BANK1   BANK2   BANK3   BANK4   BANK5   BANK6   BANK7   BANK8   BANK9  BANK10  BANK11  BANK12  BANK13  BANK14  BANK15
      Params:         4       0       0       0       0       0       0       0       0       0       0       0       0       0       0       0       0
      Locals:         0       0       0       0       0       0       0       0       0       0       0       0       0       0       0       0       0
      Temps:          0       0       0       0       0       0       0       0       0       0       0       0       0       0       0       0       0
      Totals:         4       0       0       0       0       0       0       0       0       0       0       0       0       0       0       0       0
Total ram usage:        4 bytes
 Hardware stack levels used:    1
 Hardware stack levels required when called:    3
 This function calls:
		_ultoa
 This function is called by:
		_generate_tcp_stats
 This function uses a non-reentrant model


 *************** function _ultoa *****************
 Defined at:
		line 32 in file "/opt/microchip/xc8/v1.38/sources/common/ltoa.c"
 Parameters:    Size  Location     Type
  buf             2   28[COMRAM] PTR unsigned char 
		 -> buff(10), 
  val             4   30[COMRAM] unsigned long 
  base            2   34[COMRAM] int 
 Auto vars:     Size  Location     Type
  v               4   36[COMRAM] unsigned long 
  c               1   40[COMRAM] unsigned char 
 Return value:  Size  Location     Type
                  2   28[COMRAM] PTR unsigned char 
 Registers used:
		wreg, fsr2l, fsr2h, status,2, status,0, cstack
 Tracked objects:
		On entry : 
		On exit  : 
		Unchanged: 
 Data sizes:     COMRAM   BANK0   BANK1   BANK2   BANK3   BANK4   BANK5   BANK6   BANK7   BANK8   BANK9  BANK10  BANK11  BANK12  BANK13  BANK14  BANK15
      Params:         8       0       0       0       0       0       0       0       0       0       0       0       0       0       0       0       0
      Locals:         5       0       0       0       0       0       0       0       0       0       0       0       0       0       0       0       0
      Temps:          0       0       0       0       0       0       0       0       0       0       0       0       0       0       0       0       0
      Totals:        13       0       0       0       0       0       0       0       0       0       0       0       0       0       0       0       0
Total ram usage:       13 bytes
 Hardware stack levels used:    1
 Hardware stack levels required when called:    2
 This function calls:
		___lldiv
		___llmod
 This function is called by:
		_itoa_
 This function uses a non-reentrant model


 *************** function ___llmod *****************
 Defined at:
		line 8 in file "/opt/microchip/xc8/v1.38/sources/common/llmod.c"
 Parameters:    Size  Location     Type
  dividend        4   19[COMRAM] unsigned long 
  divisor         4   23[COMRAM] unsigned long 
 Auto vars:     Size  Location     Type
  counter         1   27[COMRAM] unsigned char 
 Return value:  Size  Location     Type
                  4   19[COMRAM] unsigned long 
 Registers used:
		wreg, status,2, status,0
 Tracked objects:
		On entry : 
		On exit  : 
		Unchanged: 
 Data sizes:     COMRAM   BANK0   BANK1   BANK2   BANK3   BANK4   BANK5   BANK6   BANK7   BANK8   BANK9  BANK10  BANK11  BANK12  BANK13  BANK14  BANK15
      Params:         8       0       0       0       0       0       0       0       0       0       0       0       0       0       0       0       0
      Locals:         1       0       0       0       0       0       0       0       0       0       0       0       0       0       0       0       0
      Temps:          0       0       0       0       0       0       0       0       0       0       0       0       0       0       0       0       0
      Totals:         9       0       0       0       0       0       0       0       0       0       0       0       0       0       0       0       0
Total ram usage:        9 bytes
 Hardware stack levels used:    1
 Hardware stack levels required when called:    1
 This function calls:
		Nothing
 This function is called by:
		_stats_page
		__doprnt
		_ultoa
 This function uses a non-reentrant model


 *************** function ___lldiv *****************
 Defined at:
		line 8 in file "/opt/microchip/xc8/v1.38/sources/common/lldiv.c"
 Parameters:    Size  Location     Type
  dividend        4    6[COMRAM] unsigned long 
  divisor         4   10[COMRAM] unsigned long 
 Auto vars:     Size  Location     Type
  quotient        4   14[COMRAM] unsigned long 
  counter         1   18[COMRAM] unsigned char 
 Return value:  Size  Location     Type
                  4    6[COMRAM] unsigned long 
 Registers used:
		wreg, status,2, status,0
 Tracked objects:
		On entry : 
		On exit  : 
		Unchanged: 
 Data sizes:     COMRAM   BANK0   BANK1   BANK2   BANK3   BANK4   BANK5   BANK6   BANK7   BANK8   BANK9  BANK10  BANK11  BANK12  BANK13  BANK14  BANK15
      Params:         8       0       0       0       0       0       0       0       0       0       0       0       0       0       0       0       0
      Locals:         5       0       0       0       0       0       0       0       0       0       0       0       0       0       0       0       0
      Temps:          0       0       0       0       0       0       0       0       0       0       0       0       0       0       0       0       0
      Totals:        13       0       0       0       0       0       0       0       0       0       0       0       0       0       0       0       0
Total ram usage:       13 bytes
 Hardware stack levels used:    1
 Hardware stack levels required when called:    1
 This function calls:
		Nothing
 This function is called by:
		_stats_page
		_Serial_begin
		__doprnt
		_ultoa
 This function uses a non-reentrant model


 *************** function _Serial_println *****************
 Defined at:
		line 75 in file "serial.c"
 Parameters:    Size  Location     Type
  val             3   53[COMRAM] PTR const unsigned char 
		 -> buff(10), ROM(65535), STR_27(9), STR_20(6), 
 Auto vars:     Size  Location     Type
		None
 Return value:  Size  Location     Type
                  1    wreg      void 
 Registers used:
		wreg, fsr0l, fsr0h, status,2, status,0, tblptrl, tblptrh, tblptru, cstack
 Tracked objects:
		On entry : 
		On exit  : 
		Unchanged: 
 Data sizes:     COMRAM   BANK0   BANK1   BANK2   BANK3   BANK4   BANK5   BANK6   BANK7   BANK8   BANK9  BANK10  BANK11  BANK12  BANK13  BANK14  BANK15
      Params:         3       0       0       0       0       0       0       0       0       0       0       0       0       0       0       0       0
      Locals:         0       0       0       0       0       0       0       0       0       0       0       0       0       0       0       0       0
      Temps:          0       0       0       0       0       0       0       0       0       0       0       0       0       0       0       0       0
      Totals:         3       0       0       0       0       0       0       0       0       0       0       0       0       0       0       0       0
Total ram usage:        3 bytes
 Hardware stack levels used:    1
 Hardware stack levels required when called:    3
 This function calls:
		_Serial_print
 This function is called by:
		_setup
		_loop
		_generate_tcp_stats
 This function uses a non-reentrant model


 *************** function _Serial_print *****************
 Defined at:
		line 64 in file "serial.c"
 Parameters:    Size  Location     Type
  val             3   45[COMRAM] PTR const unsigned char 
		 -> buff(10), STR_36(3), STR_35(13), STR_34(2), 
		 -> STR_33(2), STR_32(2), STR_31(2), STR_30(16), 
		 -> STR_29(12), ROM(65535), STR_28(15), STR_27(9), 
		 -> STR_20(6), 
 Auto vars:     Size  Location     Type
  i               2   51[COMRAM] unsigned int 
 Return value:  Size  Location     Type
                  1    wreg      void 
 Registers used:
		wreg, fsr0l, fsr0h, status,2, status,0, tblptrl, tblptrh, tblptru, cstack
 Tracked objects:
		On entry : 
		On exit  : 
		Unchanged: 
 Data sizes:     COMRAM   BANK0   BANK1   BANK2   BANK3   BANK4   BANK5   BANK6   BANK7   BANK8   BANK9  BANK10  BANK11  BANK12  BANK13  BANK14  BANK15
      Params:         3       0       0       0       0       0       0       0       0       0       0       0       0       0       0       0       0
      Locals:         2       0       0       0       0       0       0       0       0       0       0       0       0       0       0       0       0
      Temps:          3       0       0       0       0       0       0       0       0       0       0       0       0       0       0       0       0
      Totals:         8       0       0       0       0       0       0       0       0       0       0       0       0       0       0       0       0
Total ram usage:        8 bytes
 Hardware stack levels used:    1
 Hardware stack levels required when called:    2
 This function calls:
		_Serial_tx
 This function is called by:
		_generate_tcp_stats
		_Serial_println
 This function uses a non-reentrant model


 *************** function _Serial_tx *****************
 Defined at:
		line 58 in file "serial.c"
 Parameters:    Size  Location     Type
  val             1    wreg     const unsigned char 
 Auto vars:     Size  Location     Type
  val             1    2[COMRAM] const unsigned char 
 Return value:  Size  Location     Type
                  1    wreg      void 
 Registers used:
		wreg
 Tracked objects:
		On entry : 
		On exit  : 
		Unchanged: 
 Data sizes:     COMRAM   BANK0   BANK1   BANK2   BANK3   BANK4   BANK5   BANK6   BANK7   BANK8   BANK9  BANK10  BANK11  BANK12  BANK13  BANK14  BANK15
      Params:         0       0       0       0       0       0       0       0       0       0       0       0       0       0       0       0       0
      Locals:         1       0       0       0       0       0       0       0       0       0       0       0       0       0       0       0       0
      Temps:          0       0       0       0       0       0       0       0       0       0       0       0       0       0       0       0       0
      Totals:         1       0       0       0       0       0       0       0       0       0       0       0       0       0       0       0       0
Total ram usage:        1 bytes
 Hardware stack levels used:    1
 Hardware stack levels required when called:    1
 This function calls:
		Nothing
 This function is called by:
		_Serial_print
 This function uses a non-reentrant model


 *************** function _credits_page *****************
 Defined at:
		line 142 in file "HTML.h"
 Parameters:    Size  Location     Type
		None
 Auto vars:     Size  Location     Type
  html_pointer    2   42[BANK0 ] PTR const unsigned char 
		 -> credits_html(963), begin_html(208), 
 Return value:  Size  Location     Type
                  1    wreg      void 
 Registers used:
		wreg, fsr0l, fsr0h, fsr1l, fsr1h, fsr2l, fsr2h, status,2, status,0, pclat, btemp, btemp+1, btemp+2, btemp+3, btemp+4, btemp+5, btemp+6, btemp+7, btemp+8, btemp+9, btemp+10, btemp+11, tosl, structret, tblptrl, tblptrh, tblptru, prodl, prodh, bsr, cstack
 Tracked objects:
		On entry : 
		On exit  : 
		Unchanged: 
 Data sizes:     COMRAM   BANK0   BANK1   BANK2   BANK3   BANK4   BANK5   BANK6   BANK7   BANK8   BANK9  BANK10  BANK11  BANK12  BANK13  BANK14  BANK15
      Params:         0       0       0       0       0       0       0       0       0       0       0       0       0       0       0       0       0
      Locals:         0       2       0       0       0       0       0       0       0       0       0       0       0       0       0       0       0
      Temps:          0       0       0       0       0       0       0       0       0       0       0       0       0       0       0       0       0
      Totals:         0       2       0       0       0       0       0       0       0       0       0       0       0       0       0       0       0
Total ram usage:        2 bytes
 Hardware stack levels used:    1
 Hardware stack levels required when called:   18
 This function calls:
		_sendPage
 This function is called by:
		_loop
 This function uses a non-reentrant model


 *************** function _sendPage *****************
 Defined at:
		line 97 in file "HTML.h"
 Parameters:    Size  Location     Type
  _pointer        2   38[BANK0 ] PTR const unsigned char 
		 -> credits_html(963), main_html_p2(170), main_html_p1(300), begin_html(208), 
  size            2   40[BANK0 ] unsigned int 
 Auto vars:     Size  Location     Type
  c               1  110[COMRAM] unsigned char 
  i               2  108[COMRAM] int 
 Return value:  Size  Location     Type
                  1    wreg      void 
 Registers used:
		wreg, fsr0l, fsr0h, fsr1l, fsr1h, fsr2l, fsr2h, status,2, status,0, pclat, btemp, btemp+1, btemp+2, btemp+3, btemp+4, btemp+5, btemp+6, btemp+7, btemp+8, btemp+9, btemp+10, btemp+11, tosl, structret, tblptrl, tblptrh, tblptru, prodl, prodh, bsr, cstack
 Tracked objects:
		On entry : 
		On exit  : 
		Unchanged: 
 Data sizes:     COMRAM   BANK0   BANK1   BANK2   BANK3   BANK4   BANK5   BANK6   BANK7   BANK8   BANK9  BANK10  BANK11  BANK12  BANK13  BANK14  BANK15
      Params:         0       4       0       0       0       0       0       0       0       0       0       0       0       0       0       0       0
      Locals:         3       0       0       0       0       0       0       0       0       0       0       0       0       0       0       0       0
      Temps:          0       0       0       0       0       0       0       0       0       0       0       0       0       0       0       0       0
      Totals:         3       4       0       0       0       0       0       0       0       0       0       0       0       0       0       0       0
Total ram usage:        7 bytes
 Hardware stack levels used:    1
 Hardware stack levels required when called:   17
 This function calls:
		_RF24EC_write
 This function is called by:
		_main_page
		_credits_page
 This function uses a non-reentrant model


 *************** function _RF24EC_write *****************
 Defined at:
		line 182 in file "../../../RF24Ethernet_cg/RF24Client_cg.c"
 Parameters:    Size  Location     Type
  buf             2   34[BANK0 ] PTR const unsigned char 
		 -> stats_page@buffer(45), main_page@bf(103), sendPage@c(1), 
  size            2   36[BANK0 ] unsigned int 
 Auto vars:     Size  Location     Type
		None
 Return value:  Size  Location     Type
                  2   34[BANK0 ] unsigned int 
 Registers used:
		wreg, fsr0l, fsr0h, fsr1l, fsr1h, fsr2l, fsr2h, status,2, status,0, pclat, btemp, btemp+1, btemp+2, btemp+3, btemp+4, btemp+5, btemp+6, btemp+7, btemp+8, btemp+9, btemp+10, btemp+11, tosl, structret, tblptrl, tblptrh, tblptru, prodl, prodh, bsr, cstack
 Tracked objects:
		On entry : 
		On exit  : 
		Unchanged: 
 Data sizes:     COMRAM   BANK0   BANK1   BANK2   BANK3   BANK4   BANK5   BANK6   BANK7   BANK8   BANK9  BANK10  BANK11  BANK12  BANK13  BANK14  BANK15
      Params:         0       4       0       0       0       0       0       0       0       0       0       0       0       0       0       0       0
      Locals:         0       0       0       0       0       0       0       0       0       0       0       0       0       0       0       0       0
      Temps:          0       0       0       0       0       0       0       0       0       0       0       0       0       0       0       0       0
      Totals:         0       4       0       0       0       0       0       0       0       0       0       0       0       0       0       0       0
Total ram usage:        4 bytes
 Hardware stack levels used:    1
 Hardware stack levels required when called:   16
 This function calls:
		_RF24EC__write
 This function is called by:
		_sendPage
		_RF24EC_write_s
 This function uses a non-reentrant model


 *************** function _RF24EC__write *****************
 Defined at:
		line 195 in file "../../../RF24Ethernet_cg/RF24Client_cg.c"
 Parameters:    Size  Location     Type
  u               2   16[BANK0 ] PTR struct .
		 -> ?_sprintf(2), ?_printf(2), all_data(234), RF24M_getAddress@nodeID(1), 
		 -> NULL(0), stats_page@buffer(45), main_page@bf(103), STR_4(10), 
		 -> STR_3(15), STR_2(4), STR_1(3), 
  buf             2   18[BANK0 ] PTR const unsigned char 
		 -> RF24ES_write_b@c(1), RF24EC_write_b@c(1), stats_page@buffer(45), main_page@bf(103), 
		 -> sendPage@c(1), 
  size            2   20[BANK0 ] unsigned int 
 Auto vars:     Size  Location     Type
  remain          2   28[BANK0 ] unsigned int 
  payloadSize     2   32[BANK0 ] unsigned int 
  total_writte    2   30[BANK0 ] unsigned int 
 Return value:  Size  Location     Type
                  2   16[BANK0 ] unsigned int 
 Registers used:
		wreg, fsr0l, fsr0h, fsr1l, fsr1h, fsr2l, fsr2h, status,2, status,0, pclat, btemp, btemp+1, btemp+2, btemp+3, btemp+4, btemp+5, btemp+6, btemp+7, btemp+8, btemp+9, btemp+10, btemp+11, tosl, structret, tblptrl, tblptrh, tblptru, prodl, prodh, bsr, cstack
 Tracked objects:
		On entry : 
		On exit  : 
		Unchanged: 
 Data sizes:     COMRAM   BANK0   BANK1   BANK2   BANK3   BANK4   BANK5   BANK6   BANK7   BANK8   BANK9  BANK10  BANK11  BANK12  BANK13  BANK14  BANK15
      Params:         0       6       0       0       0       0       0       0       0       0       0       0       0       0       0       0       0
      Locals:         0       6       0       0       0       0       0       0       0       0       0       0       0       0       0       0       0
      Temps:          0       6       0       0       0       0       0       0       0       0       0       0       0       0       0       0       0
      Totals:         0      18       0       0       0       0       0       0       0       0       0       0       0       0       0       0       0
Total ram usage:       18 bytes
 Hardware stack levels used:    1
 Hardware stack levels required when called:   15
 This function calls:
		_RF24E_tick
		_memcpy
 This function is called by:
		_RF24EC_write
		_RF24EC_write_b
		_RF24ES_write
 This function uses a non-reentrant model


 *************** function _RF24M_renewAddress *****************
 Defined at:
		line 273 in file "../../../RF24Mesh_cg/RF24Mesh_cg.c"
 Parameters:    Size  Location     Type
  timeout         4   71[BANK0 ] unsigned long 
 Auto vars:     Size  Location     Type
  start           4   83[BANK0 ] unsigned long 
  reqCounter      1   88[BANK0 ] unsigned char 
  totalReqs       1   87[BANK0 ] unsigned char 
 Return value:  Size  Location     Type
                  2   71[BANK0 ] unsigned int 
 Registers used:
		wreg, fsr0l, fsr0h, fsr1l, fsr1h, fsr2l, fsr2h, status,2, status,0, pclat, btemp, btemp+1, btemp+2, btemp+3, btemp+4, btemp+5, btemp+6, btemp+7, btemp+8, btemp+9, btemp+10, btemp+11, tosl, structret, tblptrl, tblptrh, tblptru, prodl, prodh, bsr, cstack
 Tracked objects:
		On entry : 
		On exit  : 
		Unchanged: 
 Data sizes:     COMRAM   BANK0   BANK1   BANK2   BANK3   BANK4   BANK5   BANK6   BANK7   BANK8   BANK9  BANK10  BANK11  BANK12  BANK13  BANK14  BANK15
      Params:         0       4       0       0       0       0       0       0       0       0       0       0       0       0       0       0       0
      Locals:         0       6       0       0       0       0       0       0       0       0       0       0       0       0       0       0       0
      Temps:          0       8       0       0       0       0       0       0       0       0       0       0       0       0       0       0       0
      Totals:         0      18       0       0       0       0       0       0       0       0       0       0       0       0       0       0       0
Total ram usage:       18 bytes
 Hardware stack levels used:    1
 Hardware stack levels required when called:   15
 This function calls:
		_RF24M_requestAddress
		_RF24N_begin
		_RF24N_getNetworkFlags
		_RF24N_setNetworkFlags
		_RF24_available
		_RF24_stopListening
		___awmod
		___wmul
		_delay
		_millis
 This function is called by:
		_loop
		_RF24M_begin
 This function uses a non-reentrant model


 *************** function ___awmod *****************
 Defined at:
		line 8 in file "/opt/microchip/xc8/v1.38/sources/common/awmod.c"
 Parameters:    Size  Location     Type
  dividend        2    2[COMRAM] int 
  divisor         2    4[COMRAM] int 
 Auto vars:     Size  Location     Type
  sign            1    7[COMRAM] unsigned char 
  counter         1    6[COMRAM] unsigned char 
 Return value:  Size  Location     Type
                  2    2[COMRAM] int 
 Registers used:
		wreg, status,2, status,0
 Tracked objects:
		On entry : 
		On exit  : 
		Unchanged: 
 Data sizes:     COMRAM   BANK0   BANK1   BANK2   BANK3   BANK4   BANK5   BANK6   BANK7   BANK8   BANK9  BANK10  BANK11  BANK12  BANK13  BANK14  BANK15
      Params:         4       0       0       0       0       0       0       0       0       0       0       0       0       0       0       0       0
      Locals:         2       0       0       0       0       0       0       0       0       0       0       0       0       0       0       0       0
      Temps:          0       0       0       0       0       0       0       0       0       0       0       0       0       0       0       0       0
      Totals:         6       0       0       0       0       0       0       0       0       0       0       0       0       0       0       0       0
Total ram usage:        6 bytes
 Hardware stack levels used:    1
 Hardware stack levels required when called:    1
 This function calls:
		Nothing
 This function is called by:
		_RF24M_renewAddress
 This function uses a non-reentrant model


 *************** function _RF24_available *****************
 Defined at:
		line 1091 in file "../../../RF24_cg/RF24_cg.c"
 Parameters:    Size  Location     Type
		None
 Auto vars:     Size  Location     Type
		None
 Return value:  Size  Location     Type
                  1    wreg      unsigned char 
 Registers used:
		wreg, fsr2l, fsr2h, status,2, status,0, cstack
 Tracked objects:
		On entry : 
		On exit  : 
		Unchanged: 
 Data sizes:     COMRAM   BANK0   BANK1   BANK2   BANK3   BANK4   BANK5   BANK6   BANK7   BANK8   BANK9  BANK10  BANK11  BANK12  BANK13  BANK14  BANK15
      Params:         0       0       0       0       0       0       0       0       0       0       0       0       0       0       0       0       0
      Locals:         0       0       0       0       0       0       0       0       0       0       0       0       0       0       0       0       0
      Temps:          0       0       0       0       0       0       0       0       0       0       0       0       0       0       0       0       0
      Totals:         0       0       0       0       0       0       0       0       0       0       0       0       0       0       0       0       0
Total ram usage:        0 bytes
 Hardware stack levels used:    1
 Hardware stack levels required when called:    7
 This function calls:
		_RF24_available_p
 This function is called by:
		_RF24M_renewAddress
 This function uses a non-reentrant model


 *************** function _RF24N_setNetworkFlags *****************
 Defined at:
		line 1428 in file "../../../RF24Network_cg/RF24Network_cg.c"
 Parameters:    Size  Location     Type
  nf              1    wreg     unsigned char 
 Auto vars:     Size  Location     Type
  nf              1    2[COMRAM] unsigned char 
 Return value:  Size  Location     Type
                  1    wreg      void 
 Registers used:
		wreg, fsr2l, fsr2h
 Tracked objects:
		On entry : 
		On exit  : 
		Unchanged: 
 Data sizes:     COMRAM   BANK0   BANK1   BANK2   BANK3   BANK4   BANK5   BANK6   BANK7   BANK8   BANK9  BANK10  BANK11  BANK12  BANK13  BANK14  BANK15
      Params:         0       0       0       0       0       0       0       0       0       0       0       0       0       0       0       0       0
      Locals:         1       0       0       0       0       0       0       0       0       0       0       0       0       0       0       0       0
      Temps:          0       0       0       0       0       0       0       0       0       0       0       0       0       0       0       0       0
      Totals:         1       0       0       0       0       0       0       0       0       0       0       0       0       0       0       0       0
Total ram usage:        1 bytes
 Hardware stack levels used:    1
 Hardware stack levels required when called:    1
 This function calls:
		Nothing
 This function is called by:
		_RF24M_renewAddress
		_RF24M_setChild
 This function uses a non-reentrant model


 *************** function _RF24M_requestAddress *****************
 Defined at:
		line 304 in file "../../../RF24Mesh_cg/RF24Mesh_cg.c"
 Parameters:    Size  Location     Type
  level           1    wreg     unsigned char 
 Auto vars:     Size  Location     Type
  level           1   52[BANK0 ] unsigned char 
  header          8   63[BANK0 ] struct .
  contactNode     8   44[BANK0 ] unsigned int [4]
  timr            4   55[BANK0 ] unsigned long 
  newAddress      2   59[BANK0 ] unsigned int 
  pollCount       1   62[BANK0 ] unsigned char 
  i               1   61[BANK0 ] unsigned char 
  type            1   54[BANK0 ] unsigned char 
  registerAddr    1   53[BANK0 ] unsigned char 
 Return value:  Size  Location     Type
                  1    wreg      unsigned char 
 Registers used:
		wreg, fsr0l, fsr0h, fsr1l, fsr1h, fsr2l, fsr2h, status,2, status,0, pclat, btemp, btemp+1, btemp+2, btemp+3, btemp+4, btemp+5, btemp+6, btemp+7, btemp+8, btemp+9, btemp+10, btemp+11, tosl, structret, tblptrl, tblptrh, tblptru, prodl, prodh, bsr, cstack
 Tracked objects:
		On entry : 
		On exit  : 
		Unchanged: 
 Data sizes:     COMRAM   BANK0   BANK1   BANK2   BANK3   BANK4   BANK5   BANK6   BANK7   BANK8   BANK9  BANK10  BANK11  BANK12  BANK13  BANK14  BANK15
      Params:         0       0       0       0       0       0       0       0       0       0       0       0       0       0       0       0       0
      Locals:         0      27       0       0       0       0       0       0       0       0       0       0       0       0       0       0       0
      Temps:          0       8       0       0       0       0       0       0       0       0       0       0       0       0       0       0       0
      Totals:         0      35       0       0       0       0       0       0       0       0       0       0       0       0       0       0       0
Total ram usage:       35 bytes
 Hardware stack levels used:    1
 Hardware stack levels required when called:   14
 This function calls:
		_RF24M_getNodeID
		_RF24NH_init
		_RF24N_begin
		_RF24N_getFrame_buffer
		_RF24N_multicast
		_RF24N_update
		_RF24N_write_
		_RF24N_write_m
		_RF24_stopListening
		_delay
		_memcpy
		_millis
 This function is called by:
		_RF24M_renewAddress
 This function uses a non-reentrant model


 *************** function _RF24N_multicast *****************
 Defined at:
		line 782 in file "../../../RF24Network_cg/RF24Network_cg.c"
 Parameters:    Size  Location     Type
  header          2    0[BANK0 ] PTR struct .
		 -> RF24M_requestAddress@header(8), 
  message         3    2[BANK0 ] PTR const void 
		 -> ROM(65535), 
  len             2    5[BANK0 ] unsigned int 
  level           1    7[BANK0 ] unsigned char 
 Auto vars:     Size  Location     Type
		None
 Return value:  Size  Location     Type
                  1    wreg      unsigned char 
 Registers used:
		wreg, fsr0l, fsr0h, fsr1l, fsr1h, fsr2l, fsr2h, status,2, status,0, pclat, btemp, btemp+1, btemp+2, btemp+3, btemp+4, btemp+5, btemp+6, btemp+7, btemp+8, btemp+9, btemp+10, btemp+11, tosl, structret, tblptrl, tblptrh, tblptru, prodl, prodh, bsr, cstack
 Tracked objects:
		On entry : 
		On exit  : 
		Unchanged: 
 Data sizes:     COMRAM   BANK0   BANK1   BANK2   BANK3   BANK4   BANK5   BANK6   BANK7   BANK8   BANK9  BANK10  BANK11  BANK12  BANK13  BANK14  BANK15
      Params:         0       8       0       0       0       0       0       0       0       0       0       0       0       0       0       0       0
      Locals:         2       0       0       0       0       0       0       0       0       0       0       0       0       0       0       0       0
      Temps:          0       0       0       0       0       0       0       0       0       0       0       0       0       0       0       0       0
      Totals:         2       8       0       0       0       0       0       0       0       0       0       0       0       0       0       0       0
Total ram usage:       10 bytes
 Hardware stack levels used:    1
 Hardware stack levels required when called:   12
 This function calls:
		_RF24N_levelToAddress
		_RF24N_write_
 This function is called by:
		_RF24M_requestAddress
 This function uses a non-reentrant model


 *************** function _RF24N_begin *****************
 Defined at:
		line 1407 in file "../../../RF24Network_cg/RF24Network_cg.c"
 Parameters:    Size  Location     Type
  _node_addres    2   46[COMRAM] unsigned int 
 Auto vars:     Size  Location     Type
		None
 Return value:  Size  Location     Type
                  1    wreg      void 
 Registers used:
		wreg, fsr0l, fsr0h, fsr2l, fsr2h, status,2, status,0, tblptrl, tblptrh, tblptru, prodl, prodh, cstack
 Tracked objects:
		On entry : 
		On exit  : 
		Unchanged: 
 Data sizes:     COMRAM   BANK0   BANK1   BANK2   BANK3   BANK4   BANK5   BANK6   BANK7   BANK8   BANK9  BANK10  BANK11  BANK12  BANK13  BANK14  BANK15
      Params:         2       0       0       0       0       0       0       0       0       0       0       0       0       0       0       0       0
      Locals:         0       0       0       0       0       0       0       0       0       0       0       0       0       0       0       0       0
      Temps:          0       0       0       0       0       0       0       0       0       0       0       0       0       0       0       0       0
      Totals:         2       0       0       0       0       0       0       0       0       0       0       0       0       0       0       0       0
Total ram usage:        2 bytes
 Hardware stack levels used:    1
 Hardware stack levels required when called:    8
 This function calls:
		_RF24N_begin_d
 This function is called by:
		_RF24M_begin
		_RF24M_renewAddress
		_RF24M_requestAddress
		_RF24M_releaseAddress
 This function uses a non-reentrant model


 *************** function _RF24N_begin_d *****************
 Defined at:
		line 163 in file "../../../RF24Network_cg/RF24Network_cg.c"
 Parameters:    Size  Location     Type
  _channel        1    wreg     unsigned char 
  _node_addres    2   36[COMRAM] unsigned int 
 Auto vars:     Size  Location     Type
  _channel        1   44[COMRAM] unsigned char 
  addr            5   38[COMRAM] unsigned char [5]
  i               1   45[COMRAM] unsigned char 
  retryVar        1   43[COMRAM] unsigned char 
 Return value:  Size  Location     Type
                  1    wreg      void 
 Registers used:
		wreg, fsr0l, fsr0h, fsr2l, fsr2h, status,2, status,0, tblptrl, tblptrh, tblptru, prodl, prodh, cstack
 Tracked objects:
		On entry : 
		On exit  : 
		Unchanged: 
 Data sizes:     COMRAM   BANK0   BANK1   BANK2   BANK3   BANK4   BANK5   BANK6   BANK7   BANK8   BANK9  BANK10  BANK11  BANK12  BANK13  BANK14  BANK15
      Params:         2       0       0       0       0       0       0       0       0       0       0       0       0       0       0       0       0
      Locals:         8       0       0       0       0       0       0       0       0       0       0       0       0       0       0       0       0
      Temps:          0       0       0       0       0       0       0       0       0       0       0       0       0       0       0       0       0
      Totals:        10       0       0       0       0       0       0       0       0       0       0       0       0       0       0       0       0
Total ram usage:       10 bytes
 Hardware stack levels used:    1
 Hardware stack levels required when called:    7
 This function calls:
		_RF24N_is_valid_address
		_RF24N_pipe_address
		_RF24N_setup_address
		_RF24_enableDynamicPayloads
		_RF24_isValid
		_RF24_openReadingPipe_d
		_RF24_setAutoAck_p
		_RF24_setChannel
		_RF24_setRetries
		_RF24_startListening
		___lwmod
		___wmul
 This function is called by:
		_RF24N_begin
		_RF24E_setMac
 This function uses a non-reentrant model


 *************** function _RF24_setRetries *****************
 Defined at:
		line 1580 in file "../../../RF24_cg/RF24_cg.c"
 Parameters:    Size  Location     Type
  delay           1    wreg     unsigned char 
  count           1   25[COMRAM] unsigned char 
 Auto vars:     Size  Location     Type
  delay           1   28[COMRAM] unsigned char 
 Return value:  Size  Location     Type
                  1    wreg      void 
 Registers used:
		wreg, status,2, status,0, cstack
 Tracked objects:
		On entry : 
		On exit  : 
		Unchanged: 
 Data sizes:     COMRAM   BANK0   BANK1   BANK2   BANK3   BANK4   BANK5   BANK6   BANK7   BANK8   BANK9  BANK10  BANK11  BANK12  BANK13  BANK14  BANK15
      Params:         1       0       0       0       0       0       0       0       0       0       0       0       0       0       0       0       0
      Locals:         1       0       0       0       0       0       0       0       0       0       0       0       0       0       0       0       0
      Temps:          2       0       0       0       0       0       0       0       0       0       0       0       0       0       0       0       0
      Totals:         4       0       0       0       0       0       0       0       0       0       0       0       0       0       0       0       0
Total ram usage:        4 bytes
 Hardware stack levels used:    1
 Hardware stack levels required when called:    5
 This function calls:
		_RF24_write_register_d
 This function is called by:
		_RF24_begin
		_RF24N_begin_d
 This function uses a non-reentrant model


 *************** function _RF24_setChannel *****************
 Defined at:
		line 464 in file "../../../RF24_cg/RF24_cg.c"
 Parameters:    Size  Location     Type
  channel         1    wreg     unsigned char 
 Auto vars:     Size  Location     Type
  channel         1   27[COMRAM] unsigned char 
  max_channel     1   28[COMRAM] const unsigned char 
 Return value:  Size  Location     Type
                  1    wreg      void 
 Registers used:
		wreg, status,2, status,0, cstack
 Tracked objects:
		On entry : 
		On exit  : 
		Unchanged: 
 Data sizes:     COMRAM   BANK0   BANK1   BANK2   BANK3   BANK4   BANK5   BANK6   BANK7   BANK8   BANK9  BANK10  BANK11  BANK12  BANK13  BANK14  BANK15
      Params:         0       0       0       0       0       0       0       0       0       0       0       0       0       0       0       0       0
      Locals:         4       0       0       0       0       0       0       0       0       0       0       0       0       0       0       0       0
      Temps:          0       0       0       0       0       0       0       0       0       0       0       0       0       0       0       0       0
      Totals:         4       0       0       0       0       0       0       0       0       0       0       0       0       0       0       0       0
Total ram usage:        4 bytes
 Hardware stack levels used:    1
 Hardware stack levels required when called:    5
 This function calls:
		_RF24_write_register_d
 This function is called by:
		_RF24_begin
		_RF24N_begin_d
		_RF24M_begin
		_RF24M_setChannel
		_RF24E_setChannel
 This function uses a non-reentrant model


 *************** function _RF24_openReadingPipe_d *****************
 Defined at:
		line 1187 in file "../../../RF24_cg/RF24_cg.c"
 Parameters:    Size  Location     Type
  child           1    wreg     unsigned char 
  address_        2   25[COMRAM] PTR const unsigned char 
		 -> RF24N_multicastLevel@addr(5), RF24N_begin_d@addr(5), 
 Auto vars:     Size  Location     Type
  child           1   35[COMRAM] unsigned char 
  address         5   29[COMRAM] unsigned char [5]
  i               1   34[COMRAM] unsigned char 
 Return value:  Size  Location     Type
                  1    wreg      void 
 Registers used:
		wreg, fsr0l, fsr0h, fsr2l, fsr2h, status,2, status,0, tblptrl, tblptrh, tblptru, prodl, prodh, cstack
 Tracked objects:
		On entry : 
		On exit  : 
		Unchanged: 
 Data sizes:     COMRAM   BANK0   BANK1   BANK2   BANK3   BANK4   BANK5   BANK6   BANK7   BANK8   BANK9  BANK10  BANK11  BANK12  BANK13  BANK14  BANK15
      Params:         2       0       0       0       0       0       0       0       0       0       0       0       0       0       0       0       0
      Locals:         7       0       0       0       0       0       0       0       0       0       0       0       0       0       0       0       0
      Temps:          2       0       0       0       0       0       0       0       0       0       0       0       0       0       0       0       0
      Totals:        11       0       0       0       0       0       0       0       0       0       0       0       0       0       0       0       0
Total ram usage:       11 bytes
 Hardware stack levels used:    1
 Hardware stack levels required when called:    5
 This function calls:
		_RF24_read_register_d
		_RF24_write_register_c_d
		_RF24_write_register_d
		_memcpy
 This function is called by:
		_RF24N_begin_d
		_RF24N_multicastLevel
 This function uses a non-reentrant model


 *************** function _RF24_enableDynamicPayloads *****************
 Defined at:
		line 1276 in file "../../../RF24_cg/RF24_cg.c"
 Parameters:    Size  Location     Type
		None
 Auto vars:     Size  Location     Type
		None
 Return value:  Size  Location     Type
                  1    wreg      void 
 Registers used:
		wreg, status,2, status,0, cstack
 Tracked objects:
		On entry : 
		On exit  : 
		Unchanged: 
 Data sizes:     COMRAM   BANK0   BANK1   BANK2   BANK3   BANK4   BANK5   BANK6   BANK7   BANK8   BANK9  BANK10  BANK11  BANK12  BANK13  BANK14  BANK15
      Params:         0       0       0       0       0       0       0       0       0       0       0       0       0       0       0       0       0
      Locals:         0       0       0       0       0       0       0       0       0       0       0       0       0       0       0       0       0
      Temps:          0       0       0       0       0       0       0       0       0       0       0       0       0       0       0       0       0
      Totals:         0       0       0       0       0       0       0       0       0       0       0       0       0       0       0       0       0
Total ram usage:        0 bytes
 Hardware stack levels used:    1
 Hardware stack levels required when called:    5
 This function calls:
		_RF24_read_register_d
		_RF24_write_register_d
 This function is called by:
		_RF24N_begin_d
 This function uses a non-reentrant model


 *************** function _RF24N_setup_address *****************
 Defined at:
		line 1225 in file "../../../RF24Network_cg/RF24Network_cg.c"
 Parameters:    Size  Location     Type
		None
 Auto vars:     Size  Location     Type
  node_mask_ch    2   11[COMRAM] unsigned int 
  parent_mask     2    9[COMRAM] unsigned int 
  m               2    6[COMRAM] unsigned int 
  i               2    4[COMRAM] unsigned int 
  count           1    8[COMRAM] unsigned char 
 Return value:  Size  Location     Type
                  1    wreg      void 
 Registers used:
		wreg, fsr2l, fsr2h, status,2, status,0
 Tracked objects:
		On entry : 
		On exit  : 
		Unchanged: 
 Data sizes:     COMRAM   BANK0   BANK1   BANK2   BANK3   BANK4   BANK5   BANK6   BANK7   BANK8   BANK9  BANK10  BANK11  BANK12  BANK13  BANK14  BANK15
      Params:         0       0       0       0       0       0       0       0       0       0       0       0       0       0       0       0       0
      Locals:         9       0       0       0       0       0       0       0       0       0       0       0       0       0       0       0       0
      Temps:          2       0       0       0       0       0       0       0       0       0       0       0       0       0       0       0       0
      Totals:        11       0       0       0       0       0       0       0       0       0       0       0       0       0       0       0       0
Total ram usage:       11 bytes
 Hardware stack levels used:    1
 Hardware stack levels required when called:    1
 This function calls:
		Nothing
 This function is called by:
		_RF24N_begin_d
 This function uses a non-reentrant model


 *************** function _RF24M_checkConnection *****************
 Defined at:
		line 163 in file "../../../RF24Mesh_cg/RF24Mesh_cg.c"
 Parameters:    Size  Location     Type
		None
 Auto vars:     Size  Location     Type
  header          8   88[BANK0 ] struct .
  ok              1   87[BANK0 ] unsigned char 
  count           1   86[BANK0 ] unsigned char 
 Return value:  Size  Location     Type
                  1    wreg      unsigned char 
 Registers used:
		wreg, fsr0l, fsr0h, fsr1l, fsr1h, fsr2l, fsr2h, status,2, status,0, pclat, btemp, btemp+1, btemp+2, btemp+3, btemp+4, btemp+5, btemp+6, btemp+7, btemp+8, btemp+9, btemp+10, btemp+11, tosl, structret, tblptrl, tblptrh, tblptru, prodl, prodh, bsr, cstack
 Tracked objects:
		On entry : 
		On exit  : 
		Unchanged: 
 Data sizes:     COMRAM   BANK0   BANK1   BANK2   BANK3   BANK4   BANK5   BANK6   BANK7   BANK8   BANK9  BANK10  BANK11  BANK12  BANK13  BANK14  BANK15
      Params:         0       0       0       0       0       0       0       0       0       0       0       0       0       0       0       0       0
      Locals:         0      10       0       0       0       0       0       0       0       0       0       0       0       0       0       0       0
      Temps:          1       0       0       0       0       0       0       0       0       0       0       0       0       0       0       0       0
      Totals:         1      10       0       0       0       0       0       0       0       0       0       0       0       0       0       0       0
Total ram usage:       11 bytes
 Hardware stack levels used:    1
 Hardware stack levels required when called:   16
 This function calls:
		_RF24M_update
		_RF24NH_init
		_RF24N_getNetworkFlags
		_RF24N_write_m
		_RF24_rxFifoFull
		_RF24_stopListening
		_delay
 This function is called by:
		_loop
 This function uses a non-reentrant model


 *************** function _RF24_rxFifoFull *****************
 Defined at:
		line 985 in file "../../../RF24_cg/RF24_cg.c"
 Parameters:    Size  Location     Type
		None
 Auto vars:     Size  Location     Type
		None
 Return value:  Size  Location     Type
                  1    wreg      unsigned char 
 Registers used:
		wreg, status,2, status,0, cstack
 Tracked objects:
		On entry : 
		On exit  : 
		Unchanged: 
 Data sizes:     COMRAM   BANK0   BANK1   BANK2   BANK3   BANK4   BANK5   BANK6   BANK7   BANK8   BANK9  BANK10  BANK11  BANK12  BANK13  BANK14  BANK15
      Params:         0       0       0       0       0       0       0       0       0       0       0       0       0       0       0       0       0
      Locals:         0       0       0       0       0       0       0       0       0       0       0       0       0       0       0       0       0
      Temps:          0       0       0       0       0       0       0       0       0       0       0       0       0       0       0       0       0
      Totals:         0       0       0       0       0       0       0       0       0       0       0       0       0       0       0       0       0
Total ram usage:        0 bytes
 Hardware stack levels used:    1
 Hardware stack levels required when called:    5
 This function calls:
		_RF24_read_register_d
 This function is called by:
		_RF24M_checkConnection
 This function uses a non-reentrant model


 *************** function _RF24N_getNetworkFlags *****************
 Defined at:
		line 1424 in file "../../../RF24Network_cg/RF24Network_cg.c"
 Parameters:    Size  Location     Type
		None
 Auto vars:     Size  Location     Type
		None
 Return value:  Size  Location     Type
                  1    wreg      unsigned char 
 Registers used:
		wreg, fsr2l, fsr2h
 Tracked objects:
		On entry : 
		On exit  : 
		Unchanged: 
 Data sizes:     COMRAM   BANK0   BANK1   BANK2   BANK3   BANK4   BANK5   BANK6   BANK7   BANK8   BANK9  BANK10  BANK11  BANK12  BANK13  BANK14  BANK15
      Params:         0       0       0       0       0       0       0       0       0       0       0       0       0       0       0       0       0
      Locals:         0       0       0       0       0       0       0       0       0       0       0       0       0       0       0       0       0
      Temps:          0       0       0       0       0       0       0       0       0       0       0       0       0       0       0       0       0
      Totals:         0       0       0       0       0       0       0       0       0       0       0       0       0       0       0       0       0
Total ram usage:        0 bytes
 Hardware stack levels used:    1
 Hardware stack levels required when called:    1
 This function calls:
		Nothing
 This function is called by:
		_RF24M_checkConnection
		_RF24M_renewAddress
		_RF24M_setChild
 This function uses a non-reentrant model


 *************** function _RF24M_update *****************
 Defined at:
		line 65 in file "../../../RF24Mesh_cg/RF24Mesh_cg.c"
 Parameters:    Size  Location     Type
		None
 Auto vars:     Size  Location     Type
  returnAddr      2   80[BANK0 ] int 
  returnAddr      2   78[BANK0 ] int 
  header          2   74[BANK0 ] PTR struct .
		 -> rn.frame_buffer(32), rn(370), 
  fromAddr        2   72[BANK0 ] PTR unsigned int 
		 -> rn.frame_buffer(32), rn(370), 
  i               1   82[BANK0 ] unsigned char 
  header          2   83[BANK0 ] PTR struct .
		 -> rn.frame_buffer(32), rn(370), 
  type            1   85[BANK0 ] unsigned char 
 Return value:  Size  Location     Type
                  1    wreg      unsigned char 
 Registers used:
		wreg, fsr0l, fsr0h, fsr1l, fsr1h, fsr2l, fsr2h, status,2, status,0, pclat, btemp, btemp+1, btemp+2, btemp+3, btemp+4, btemp+5, btemp+6, btemp+7, btemp+8, btemp+9, btemp+10, btemp+11, tosl, structret, tblptrl, tblptrh, tblptru, prodl, prodh, bsr, cstack
 Tracked objects:
		On entry : 
		On exit  : 
		Unchanged: 
 Data sizes:     COMRAM   BANK0   BANK1   BANK2   BANK3   BANK4   BANK5   BANK6   BANK7   BANK8   BANK9  BANK10  BANK11  BANK12  BANK13  BANK14  BANK15
      Params:         0       0       0       0       0       0       0       0       0       0       0       0       0       0       0       0       0
      Locals:         0      14       0       0       0       0       0       0       0       0       0       0       0       0       0       0       0
      Temps:          0       6       0       0       0       0       0       0       0       0       0       0       0       0       0       0       0
      Totals:         0      20       0       0       0       0       0       0       0       0       0       0       0       0       0       0       0
Total ram usage:       20 bytes
 Hardware stack levels used:    1
 Hardware stack levels required when called:   15
 This function calls:
		_RF24M_getAddress
		_RF24M_getNodeID
		_RF24M_setAddress
		_RF24N_getFrame_buffer
		_RF24N_update
		_RF24N_write_m
 This function is called by:
		_RF24M_checkConnection
 This function uses a non-reentrant model


 *************** function _RF24M_setAddress *****************
 Defined at:
		line 488 in file "../../../RF24Mesh_cg/RF24Mesh_cg.c"
 Parameters:    Size  Location     Type
  nodeID          1    wreg     unsigned char 
  address         2   15[COMRAM] unsigned int 
 Auto vars:     Size  Location     Type
  nodeID          1   19[COMRAM] unsigned char 
  i               1   21[COMRAM] unsigned char 
  position        1   20[COMRAM] unsigned char 
 Return value:  Size  Location     Type
                  1    wreg      void 
 Registers used:
		wreg, fsr2l, fsr2h, status,2, status,0, prodl, prodh, cstack
 Tracked objects:
		On entry : 
		On exit  : 
		Unchanged: 
 Data sizes:     COMRAM   BANK0   BANK1   BANK2   BANK3   BANK4   BANK5   BANK6   BANK7   BANK8   BANK9  BANK10  BANK11  BANK12  BANK13  BANK14  BANK15
      Params:         2       0       0       0       0       0       0       0       0       0       0       0       0       0       0       0       0
      Locals:         3       0       0       0       0       0       0       0       0       0       0       0       0       0       0       0       0
      Temps:          2       0       0       0       0       0       0       0       0       0       0       0       0       0       0       0       0
      Totals:         7       0       0       0       0       0       0       0       0       0       0       0       0       0       0       0       0
Total ram usage:        7 bytes
 Hardware stack levels used:    1
 Hardware stack levels required when called:    3
 This function calls:
		___wmul
		_realloc
 This function is called by:
		_RF24M_update
		_RF24M_setStaticAddress
		_RF24M_DHCP
 This function uses a non-reentrant model


 *************** function _realloc *****************
 Defined at:
		line 28 in file "umalloc.c"
 Parameters:    Size  Location     Type
  dat             2   11[COMRAM] PTR void 
		 -> NULL(0), 
  size            2   13[COMRAM] unsigned int 
 Auto vars:     Size  Location     Type
		None
 Return value:  Size  Location     Type
                  2   11[COMRAM] PTR void 
 Registers used:
		wreg, status,2, status,0, cstack
 Tracked objects:
		On entry : 
		On exit  : 
		Unchanged: 
 Data sizes:     COMRAM   BANK0   BANK1   BANK2   BANK3   BANK4   BANK5   BANK6   BANK7   BANK8   BANK9  BANK10  BANK11  BANK12  BANK13  BANK14  BANK15
      Params:         4       0       0       0       0       0       0       0       0       0       0       0       0       0       0       0       0
      Locals:         0       0       0       0       0       0       0       0       0       0       0       0       0       0       0       0       0
      Temps:          0       0       0       0       0       0       0       0       0       0       0       0       0       0       0       0       0
      Totals:         4       0       0       0       0       0       0       0       0       0       0       0       0       0       0       0       0
Total ram usage:        4 bytes
 Hardware stack levels used:    1
 Hardware stack levels required when called:    2
 This function calls:
		_free
		_malloc
 This function is called by:
		_RF24M_setAddress
 This function uses a non-reentrant model


 *************** function _malloc *****************
 Defined at:
		line 8 in file "umalloc.c"
 Parameters:    Size  Location     Type
  size            2    2[COMRAM] unsigned int 
 Auto vars:     Size  Location     Type
  ret             2    9[COMRAM] PTR unsigned char 
		 -> NULL(0), 
 Return value:  Size  Location     Type
                  2    2[COMRAM] PTR void 
 Registers used:
		wreg, status,2, status,0
 Tracked objects:
		On entry : 
		On exit  : 
		Unchanged: 
 Data sizes:     COMRAM   BANK0   BANK1   BANK2   BANK3   BANK4   BANK5   BANK6   BANK7   BANK8   BANK9  BANK10  BANK11  BANK12  BANK13  BANK14  BANK15
      Params:         2       0       0       0       0       0       0       0       0       0       0       0       0       0       0       0       0
      Locals:         2       0       0       0       0       0       0       0       0       0       0       0       0       0       0       0       0
      Temps:          5       0       0       0       0       0       0       0       0       0       0       0       0       0       0       0       0
      Totals:         9       0       0       0       0       0       0       0       0       0       0       0       0       0       0       0       0
Total ram usage:        9 bytes
 Hardware stack levels used:    1
 Hardware stack levels required when called:    1
 This function calls:
		Nothing
 This function is called by:
		_realloc
		_RF24M_begin
 This function uses a non-reentrant model


 *************** function _free *****************
 Defined at:
		line 23 in file "umalloc.c"
 Parameters:    Size  Location     Type
  dat             2    2[COMRAM] PTR void 
		 -> NULL(0), 
 Auto vars:     Size  Location     Type
		None
 Return value:  Size  Location     Type
                  1    wreg      void 
 Registers used:
		wreg, status,2, status,0
 Tracked objects:
		On entry : 
		On exit  : 
		Unchanged: 
 Data sizes:     COMRAM   BANK0   BANK1   BANK2   BANK3   BANK4   BANK5   BANK6   BANK7   BANK8   BANK9  BANK10  BANK11  BANK12  BANK13  BANK14  BANK15
      Params:         2       0       0       0       0       0       0       0       0       0       0       0       0       0       0       0       0
      Locals:         0       0       0       0       0       0       0       0       0       0       0       0       0       0       0       0       0
      Temps:          0       0       0       0       0       0       0       0       0       0       0       0       0       0       0       0       0
      Totals:         2       0       0       0       0       0       0       0       0       0       0       0       0       0       0       0       0
Total ram usage:        2 bytes
 Hardware stack levels used:    1
 Hardware stack levels required when called:    1
 This function calls:
		Nothing
 This function is called by:
		_realloc
 This function uses a non-reentrant model


 *************** function _RF24M_getAddress *****************
 Defined at:
		line 187 in file "../../../RF24Mesh_cg/RF24Mesh_cg.c"
 Parameters:    Size  Location     Type
  nodeID          1    wreg     unsigned char 
 Auto vars:     Size  Location     Type
  nodeID          1   65[BANK0 ] unsigned char 
  timeout         4   50[BANK0 ] unsigned long 
  timer           4   46[BANK0 ] unsigned long 
  i               1   54[BANK0 ] unsigned char 
  header          8   57[BANK0 ] struct .
  address         2   55[BANK0 ] int 
 Return value:  Size  Location     Type
                  2   36[BANK0 ] int 
 Registers used:
		wreg, fsr0l, fsr0h, fsr1l, fsr1h, fsr2l, fsr2h, status,2, status,0, pclat, btemp, btemp+1, btemp+2, btemp+3, btemp+4, btemp+5, btemp+6, btemp+7, btemp+8, btemp+9, btemp+10, btemp+11, tosl, structret, tblptrl, tblptrh, tblptru, prodl, prodh, bsr, cstack
 Tracked objects:
		On entry : 
		On exit  : 
		Unchanged: 
 Data sizes:     COMRAM   BANK0   BANK1   BANK2   BANK3   BANK4   BANK5   BANK6   BANK7   BANK8   BANK9  BANK10  BANK11  BANK12  BANK13  BANK14  BANK15
      Params:         0       2       0       0       0       0       0       0       0       0       0       0       0       0       0       0       0
      Locals:         0      20       0       0       0       0       0       0       0       0       0       0       0       0       0       0       0
      Temps:          0       8       0       0       0       0       0       0       0       0       0       0       0       0       0       0       0
      Totals:         0      30       0       0       0       0       0       0       0       0       0       0       0       0       0       0       0
Total ram usage:       30 bytes
 Hardware stack levels used:    1
 Hardware stack levels required when called:   14
 This function calls:
		_RF24M_getNodeID
		_RF24NH_init
		_RF24N_getFrame_buffer
		_RF24N_update
		_RF24N_write_m
		_memcpy
		_millis
 This function is called by:
		_RF24M_update
		_RF24M_write
 This function uses a non-reentrant model


 *************** function _RF24M_getNodeID *****************
 Defined at:
		line 222 in file "../../../RF24Mesh_cg/RF24Mesh_cg.c"
 Parameters:    Size  Location     Type
  address         2    7[BANK0 ] unsigned int 
 Auto vars:     Size  Location     Type
  timeout         4   21[BANK0 ] unsigned long 
  timer           4   17[BANK0 ] unsigned long 
  ID              2   25[BANK0 ] int 
  header          8   28[BANK0 ] struct .
  i               1   27[BANK0 ] unsigned char 
 Return value:  Size  Location     Type
                  2    7[BANK0 ] int 
 Registers used:
		wreg, fsr0l, fsr0h, fsr1l, fsr1h, fsr2l, fsr2h, status,2, status,0, pclat, btemp, btemp+1, btemp+2, btemp+3, btemp+4, btemp+5, btemp+6, btemp+7, btemp+8, btemp+9, btemp+10, btemp+11, tosl, structret, tblptrl, tblptrh, tblptru, prodl, prodh, bsr, cstack
 Tracked objects:
		On entry : 
		On exit  : 
		Unchanged: 
 Data sizes:     COMRAM   BANK0   BANK1   BANK2   BANK3   BANK4   BANK5   BANK6   BANK7   BANK8   BANK9  BANK10  BANK11  BANK12  BANK13  BANK14  BANK15
      Params:         0       2       0       0       0       0       0       0       0       0       0       0       0       0       0       0       0
      Locals:         0      19       0       0       0       0       0       0       0       0       0       0       0       0       0       0       0
      Temps:          0       8       0       0       0       0       0       0       0       0       0       0       0       0       0       0       0
      Totals:         0      29       0       0       0       0       0       0       0       0       0       0       0       0       0       0       0
Total ram usage:       29 bytes
 Hardware stack levels used:    1
 Hardware stack levels required when called:   13
 This function calls:
		_RF24NH_init
		_RF24N_getFrame_buffer
		_RF24N_update
		_RF24N_write_m
		_memcpy
		_millis
 This function is called by:
		_RF24M_begin
		_RF24M_update
		_RF24M_getAddress
		_RF24M_requestAddress
 This function uses a non-reentrant model


 *************** function _RF24N_getFrame_buffer *****************
 Defined at:
		line 1413 in file "../../../RF24Network_cg/RF24Network_cg.c"
 Parameters:    Size  Location     Type
		None
 Auto vars:     Size  Location     Type
		None
 Return value:  Size  Location     Type
                  2    2[COMRAM] PTR unsigned char 
 Registers used:
		wreg, status,2, status,0
 Tracked objects:
		On entry : 
		On exit  : 
		Unchanged: 
 Data sizes:     COMRAM   BANK0   BANK1   BANK2   BANK3   BANK4   BANK5   BANK6   BANK7   BANK8   BANK9  BANK10  BANK11  BANK12  BANK13  BANK14  BANK15
      Params:         2       0       0       0       0       0       0       0       0       0       0       0       0       0       0       0       0
      Locals:         0       0       0       0       0       0       0       0       0       0       0       0       0       0       0       0       0
      Temps:          0       0       0       0       0       0       0       0       0       0       0       0       0       0       0       0       0
      Totals:         2       0       0       0       0       0       0       0       0       0       0       0       0       0       0       0       0
Total ram usage:        2 bytes
 Hardware stack levels used:    1
 Hardware stack levels required when called:    1
 This function calls:
		Nothing
 This function is called by:
		_RF24M_update
		_RF24M_getAddress
		_RF24M_getNodeID
		_RF24M_requestAddress
		_RF24M_DHCP
		_memcpy
 This function uses a non-reentrant model


 *************** function _RF24ES_available *****************
 Defined at:
		line 36 in file "../../../RF24Ethernet_cg/RF24Server_cg.c"
 Parameters:    Size  Location     Type
		None
 Auto vars:     Size  Location     Type
  data            2   16[BANK0 ] PTR struct .
		 -> all_data(234), 
 Return value:  Size  Location     Type
                  1    wreg      void 
 Registers used:
		wreg, fsr0l, fsr0h, fsr1l, fsr1h, fsr2l, fsr2h, status,2, status,0, pclat, btemp, btemp+1, btemp+2, btemp+3, btemp+4, btemp+5, btemp+6, btemp+7, btemp+8, btemp+9, btemp+10, btemp+11, tosl, structret, tblptrl, tblptrh, tblptru, prodl, prodh, bsr, cstack
 Tracked objects:
		On entry : 
		On exit  : 
		Unchanged: 
 Data sizes:     COMRAM   BANK0   BANK1   BANK2   BANK3   BANK4   BANK5   BANK6   BANK7   BANK8   BANK9  BANK10  BANK11  BANK12  BANK13  BANK14  BANK15
      Params:         0       0       0       0       0       0       0       0       0       0       0       0       0       0       0       0       0
      Locals:         0       2       0       0       0       0       0       0       0       0       0       0       0       0       0       0       0
      Temps:          3       0       0       0       0       0       0       0       0       0       0       0       0       0       0       0       0
      Totals:         3       2       0       0       0       0       0       0       0       0       0       0       0       0       0       0       0
Total ram usage:        5 bytes
 Hardware stack levels used:    1
 Hardware stack levels required when called:   15
 This function calls:
		_RF24EC_init
		_RF24EC_init_d
		_RF24E_tick
 This function is called by:
		_loop
 This function uses a non-reentrant model


 *************** function _RF24EC_init_d *****************
 Defined at:
		line 39 in file "../../../RF24Ethernet_cg/RF24Client_cg.c"
 Parameters:    Size  Location     Type
  conn_data       2    2[COMRAM] PTR struct .
		 -> all_data(234), 
 Auto vars:     Size  Location     Type
		None
 Return value:  Size  Location     Type
                  1    wreg      void 
 Registers used:
		wreg, status,2, status,0
 Tracked objects:
		On entry : 
		On exit  : 
		Unchanged: 
 Data sizes:     COMRAM   BANK0   BANK1   BANK2   BANK3   BANK4   BANK5   BANK6   BANK7   BANK8   BANK9  BANK10  BANK11  BANK12  BANK13  BANK14  BANK15
      Params:         2       0       0       0       0       0       0       0       0       0       0       0       0       0       0       0       0
      Locals:         0       0       0       0       0       0       0       0       0       0       0       0       0       0       0       0       0
      Temps:          0       0       0       0       0       0       0       0       0       0       0       0       0       0       0       0       0
      Totals:         2       0       0       0       0       0       0       0       0       0       0       0       0       0       0       0       0
Total ram usage:        2 bytes
 Hardware stack levels used:    1
 Hardware stack levels required when called:    1
 This function calls:
		Nothing
 This function is called by:
		_RF24ES_available
 This function uses a non-reentrant model


 *************** function _RF24EC_init *****************
 Defined at:
		line 32 in file "../../../RF24Ethernet_cg/RF24Client_cg.c"
 Parameters:    Size  Location     Type
		None
 Auto vars:     Size  Location     Type
		None
 Return value:  Size  Location     Type
                  1    wreg      void 
 Registers used:
		wreg, status,2, status,0
 Tracked objects:
		On entry : 
		On exit  : 
		Unchanged: 
 Data sizes:     COMRAM   BANK0   BANK1   BANK2   BANK3   BANK4   BANK5   BANK6   BANK7   BANK8   BANK9  BANK10  BANK11  BANK12  BANK13  BANK14  BANK15
      Params:         0       0       0       0       0       0       0       0       0       0       0       0       0       0       0       0       0
      Locals:         0       0       0       0       0       0       0       0       0       0       0       0       0       0       0       0       0
      Temps:          0       0       0       0       0       0       0       0       0       0       0       0       0       0       0       0       0
      Totals:         0       0       0       0       0       0       0       0       0       0       0       0       0       0       0       0       0
Total ram usage:        0 bytes
 Hardware stack levels used:    1
 Hardware stack levels required when called:    1
 This function calls:
		Nothing
 This function is called by:
		_RF24ES_available
		_RF24ES_write
 This function uses a non-reentrant model


 *************** function _RF24EC_valid *****************
 Defined at:
		line 168 in file "../../../RF24Ethernet_cg/RF24Client_cg.c"
 Parameters:    Size  Location     Type
		None
 Auto vars:     Size  Location     Type
		None
 Return value:  Size  Location     Type
                  2   16[BANK0 ] int 
 Registers used:
		wreg, fsr0l, fsr0h, fsr1l, fsr1h, fsr2l, fsr2h, status,2, status,0, pclat, btemp, btemp+1, btemp+2, btemp+3, btemp+4, btemp+5, btemp+6, btemp+7, btemp+8, btemp+9, btemp+10, btemp+11, tosl, structret, tblptrl, tblptrh, tblptru, prodl, prodh, bsr, cstack
 Tracked objects:
		On entry : 
		On exit  : 
		Unchanged: 
 Data sizes:     COMRAM   BANK0   BANK1   BANK2   BANK3   BANK4   BANK5   BANK6   BANK7   BANK8   BANK9  BANK10  BANK11  BANK12  BANK13  BANK14  BANK15
      Params:         0       2       0       0       0       0       0       0       0       0       0       0       0       0       0       0       0
      Locals:         1       0       0       0       0       0       0       0       0       0       0       0       0       0       0       0       0
      Temps:          2       0       0       0       0       0       0       0       0       0       0       0       0       0       0       0       0
      Totals:         3       2       0       0       0       0       0       0       0       0       0       0       0       0       0       0       0
Total ram usage:        5 bytes
 Hardware stack levels used:    1
 Hardware stack levels required when called:   15
 This function calls:
		_RF24E_tick
 This function is called by:
		_loop
 This function uses a non-reentrant model


 *************** function _RF24EC_stop *****************
 Defined at:
		line 127 in file "../../../RF24Ethernet_cg/RF24Client_cg.c"
 Parameters:    Size  Location     Type
		None
 Auto vars:     Size  Location     Type
		None
 Return value:  Size  Location     Type
                  1    wreg      void 
 Registers used:
		wreg, fsr0l, fsr0h, fsr1l, fsr1h, fsr2l, fsr2h, status,2, status,0, pclat, btemp, btemp+1, btemp+2, btemp+3, btemp+4, btemp+5, btemp+6, btemp+7, btemp+8, btemp+9, btemp+10, btemp+11, tosl, structret, tblptrl, tblptrh, tblptru, prodl, prodh, bsr, cstack
 Tracked objects:
		On entry : 
		On exit  : 
		Unchanged: 
 Data sizes:     COMRAM   BANK0   BANK1   BANK2   BANK3   BANK4   BANK5   BANK6   BANK7   BANK8   BANK9  BANK10  BANK11  BANK12  BANK13  BANK14  BANK15
      Params:         0       0       0       0       0       0       0       0       0       0       0       0       0       0       0       0       0
      Locals:         0       0       0       0       0       0       0       0       0       0       0       0       0       0       0       0       0
      Temps:          2       0       0       0       0       0       0       0       0       0       0       0       0       0       0       0       0
      Totals:         2       0       0       0       0       0       0       0       0       0       0       0       0       0       0       0       0
Total ram usage:        2 bytes
 Hardware stack levels used:    1
 Hardware stack levels required when called:   15
 This function calls:
		_RF24E_tick
 This function is called by:
		_loop
		_RF24EC_connect
 This function uses a non-reentrant model


 *************** function _RF24EC_flush *****************
 Defined at:
		line 522 in file "../../../RF24Ethernet_cg/RF24Client_cg.c"
 Parameters:    Size  Location     Type
		None
 Auto vars:     Size  Location     Type
		None
 Return value:  Size  Location     Type
                  1    wreg      void 
 Registers used:
		wreg, fsr0l, fsr0h, status,2, status,0, tblptrl, tblptrh, tblptru
 Tracked objects:
		On entry : 
		On exit  : 
		Unchanged: 
 Data sizes:     COMRAM   BANK0   BANK1   BANK2   BANK3   BANK4   BANK5   BANK6   BANK7   BANK8   BANK9  BANK10  BANK11  BANK12  BANK13  BANK14  BANK15
      Params:         0       0       0       0       0       0       0       0       0       0       0       0       0       0       0       0       0
      Locals:         0       0       0       0       0       0       0       0       0       0       0       0       0       0       0       0       0
      Temps:          2       0       0       0       0       0       0       0       0       0       0       0       0       0       0       0       0
      Totals:         2       0       0       0       0       0       0       0       0       0       0       0       0       0       0       0       0
Total ram usage:        2 bytes
 Hardware stack levels used:    1
 Hardware stack levels required when called:    1
 This function calls:
		Nothing
 This function is called by:
		_loop
 This function uses a non-reentrant model


 *************** function _RF24EC_findUntil *****************
 Defined at:
		line 530 in file "../../../RF24Ethernet_cg/RF24Client_cg.c"
 Parameters:    Size  Location     Type
  target          2   42[BANK0 ] PTR const unsigned char 
		 -> STR_21(2), 
  terminator      2   44[BANK0 ] PTR const unsigned char 
		 -> STR_22(2), 
 Auto vars:     Size  Location     Type
		None
 Return value:  Size  Location     Type
                  1    wreg      unsigned char 
 Registers used:
		wreg, fsr0l, fsr0h, fsr2l, fsr2h, status,2, status,0, tblptrl, tblptrh, tblptru, prodl, prodh, cstack
 Tracked objects:
		On entry : 
		On exit  : 
		Unchanged: 
 Data sizes:     COMRAM   BANK0   BANK1   BANK2   BANK3   BANK4   BANK5   BANK6   BANK7   BANK8   BANK9  BANK10  BANK11  BANK12  BANK13  BANK14  BANK15
      Params:         0       4       0       0       0       0       0       0       0       0       0       0       0       0       0       0       0
      Locals:         0       0       0       0       0       0       0       0       0       0       0       0       0       0       0       0       0
      Temps:          0       0       0       0       0       0       0       0       0       0       0       0       0       0       0       0       0
      Totals:         0       4       0       0       0       0       0       0       0       0       0       0       0       0       0       0       0
Total ram usage:        4 bytes
 Hardware stack levels used:    1
 Hardware stack levels required when called:    7
 This function calls:
		_RF24EC_findUntil_f
		_strlen
 This function is called by:
		_loop
 This function uses a non-reentrant model


 *************** function _strlen *****************
 Defined at:
		line 4 in file "/opt/microchip/xc8/v1.38/sources/common/strlen.c"
 Parameters:    Size  Location     Type
  s               2   38[BANK0 ] PTR const unsigned char 
		 -> STR_22(2), STR_21(2), stats_page@buffer(45), main_page@bf(103), 
 Auto vars:     Size  Location     Type
  cp              2   40[BANK0 ] PTR const unsigned char 
		 -> STR_22(2), STR_21(2), stats_page@buffer(45), main_page@bf(103), 
 Return value:  Size  Location     Type
                  2   38[BANK0 ] unsigned int 
 Registers used:
		wreg, fsr0l, fsr0h, status,2, status,0, tblptrl, tblptrh, tblptru
 Tracked objects:
		On entry : 
		On exit  : 
		Unchanged: 
 Data sizes:     COMRAM   BANK0   BANK1   BANK2   BANK3   BANK4   BANK5   BANK6   BANK7   BANK8   BANK9  BANK10  BANK11  BANK12  BANK13  BANK14  BANK15
      Params:         0       2       0       0       0       0       0       0       0       0       0       0       0       0       0       0       0
      Locals:         0       2       0       0       0       0       0       0       0       0       0       0       0       0       0       0       0
      Temps:          2       0       0       0       0       0       0       0       0       0       0       0       0       0       0       0       0
      Totals:         2       4       0       0       0       0       0       0       0       0       0       0       0       0       0       0       0
Total ram usage:        6 bytes
 Hardware stack levels used:    1
 Hardware stack levels required when called:    1
 This function calls:
		Nothing
 This function is called by:
		_RF24EC_write_s
		_RF24EC_findUntil
		_RF24EC_find
		_RF24ES_write_s
 This function uses a non-reentrant model


 *************** function _RF24EC_findUntil_f *****************
 Defined at:
		line 542 in file "../../../RF24Ethernet_cg/RF24Client_cg.c"
 Parameters:    Size  Location     Type
  target          2   71[COMRAM] PTR const unsigned char 
		 -> STR_21(2), 
  targetLen       2   73[COMRAM] unsigned int 
  terminator      3   75[COMRAM] PTR const unsigned char 
		 -> ROM(65535), STR_22(2), 
  termLen         2   78[COMRAM] unsigned int 
 Auto vars:     Size  Location     Type
  t              14   80[COMRAM] struct .[2]
  t               7   94[COMRAM] struct .[1]
 Return value:  Size  Location     Type
                  1    wreg      unsigned char 
 Registers used:
		wreg, fsr0l, fsr0h, fsr2l, fsr2h, status,2, status,0, tblptrl, tblptrh, tblptru, prodl, prodh, cstack
 Tracked objects:
		On entry : 
		On exit  : 
		Unchanged: 
 Data sizes:     COMRAM   BANK0   BANK1   BANK2   BANK3   BANK4   BANK5   BANK6   BANK7   BANK8   BANK9  BANK10  BANK11  BANK12  BANK13  BANK14  BANK15
      Params:         9       0       0       0       0       0       0       0       0       0       0       0       0       0       0       0       0
      Locals:        21       0       0       0       0       0       0       0       0       0       0       0       0       0       0       0       0
      Temps:          0       0       0       0       0       0       0       0       0       0       0       0       0       0       0       0       0
      Totals:        30       0       0       0       0       0       0       0       0       0       0       0       0       0       0       0       0
Total ram usage:       30 bytes
 Hardware stack levels used:    1
 Hardware stack levels required when called:    6
 This function calls:
		_RF24EC_findMulti
 This function is called by:
		_RF24EC_findUntil
		_RF24EC_find
 This function uses a non-reentrant model


 *************** function _RF24EC_findMulti *****************
 Defined at:
		line 590 in file "../../../RF24Ethernet_cg/RF24Client_cg.c"
 Parameters:    Size  Location     Type
  targets         2   42[COMRAM] PTR struct .
		 -> RF24EC_findUntil_f@t_4271(14), RF24EC_findUntil_f@t(7), 
  tCount          2   44[COMRAM] int 
 Auto vars:     Size  Location     Type
  i               2   67[COMRAM] unsigned int 
  diff            2   63[COMRAM] int 
  origIndex       2   61[COMRAM] int 
  c               2   65[COMRAM] int 
  t               2   69[COMRAM] PTR struct .
		 -> RF24EC_findUntil_f@t_4271(14), RF24EC_findUntil_f@t(7), 
 Return value:  Size  Location     Type
                  2   42[COMRAM] int 
 Registers used:
		wreg, fsr0l, fsr0h, fsr2l, fsr2h, status,2, status,0, tblptrl, tblptrh, tblptru, prodl, prodh, cstack
 Tracked objects:
		On entry : 
		On exit  : 
		Unchanged: 
 Data sizes:     COMRAM   BANK0   BANK1   BANK2   BANK3   BANK4   BANK5   BANK6   BANK7   BANK8   BANK9  BANK10  BANK11  BANK12  BANK13  BANK14  BANK15
      Params:         4       0       0       0       0       0       0       0       0       0       0       0       0       0       0       0       0
      Locals:        10       0       0       0       0       0       0       0       0       0       0       0       0       0       0       0       0
      Temps:         15       0       0       0       0       0       0       0       0       0       0       0       0       0       0       0       0
      Totals:        29       0       0       0       0       0       0       0       0       0       0       0       0       0       0       0       0
Total ram usage:       29 bytes
 Hardware stack levels used:    1
 Hardware stack levels required when called:    5
 This function calls:
		_RF24EC_timedRead
		___awdiv
		___wmul
 This function is called by:
		_RF24EC_findUntil_f
 This function uses a non-reentrant model


 *************** function ___awdiv *****************
 Defined at:
		line 8 in file "/opt/microchip/xc8/v1.38/sources/common/awdiv.c"
 Parameters:    Size  Location     Type
  dividend        2    2[COMRAM] int 
  divisor         2    4[COMRAM] int 
 Auto vars:     Size  Location     Type
  quotient        2    8[COMRAM] int 
  sign            1    7[COMRAM] unsigned char 
  counter         1    6[COMRAM] unsigned char 
 Return value:  Size  Location     Type
                  2    2[COMRAM] int 
 Registers used:
		wreg, status,2, status,0
 Tracked objects:
		On entry : 
		On exit  : 
		Unchanged: 
 Data sizes:     COMRAM   BANK0   BANK1   BANK2   BANK3   BANK4   BANK5   BANK6   BANK7   BANK8   BANK9  BANK10  BANK11  BANK12  BANK13  BANK14  BANK15
      Params:         4       0       0       0       0       0       0       0       0       0       0       0       0       0       0       0       0
      Locals:         4       0       0       0       0       0       0       0       0       0       0       0       0       0       0       0       0
      Temps:          0       0       0       0       0       0       0       0       0       0       0       0       0       0       0       0       0
      Totals:         8       0       0       0       0       0       0       0       0       0       0       0       0       0       0       0       0
Total ram usage:        8 bytes
 Hardware stack levels used:    1
 Hardware stack levels required when called:    1
 This function calls:
		Nothing
 This function is called by:
		_RF24EC_findMulti
 This function uses a non-reentrant model


 *************** function _RF24EC_timedRead *****************
 Defined at:
		line 686 in file "../../../RF24Ethernet_cg/RF24Client_cg.c"
 Parameters:    Size  Location     Type
		None
 Auto vars:     Size  Location     Type
  c               2   40[COMRAM] int 
 Return value:  Size  Location     Type
                  2   30[COMRAM] int 
 Registers used:
		wreg, fsr0l, fsr0h, fsr2l, fsr2h, status,2, status,0, tblptrl, tblptrh, tblptru, prodl, prodh, cstack
 Tracked objects:
		On entry : 
		On exit  : 
		Unchanged: 
 Data sizes:     COMRAM   BANK0   BANK1   BANK2   BANK3   BANK4   BANK5   BANK6   BANK7   BANK8   BANK9  BANK10  BANK11  BANK12  BANK13  BANK14  BANK15
      Params:         2       0       0       0       0       0       0       0       0       0       0       0       0       0       0       0       0
      Locals:         2       0       0       0       0       0       0       0       0       0       0       0       0       0       0       0       0
      Temps:          8       0       0       0       0       0       0       0       0       0       0       0       0       0       0       0       0
      Totals:        12       0       0       0       0       0       0       0       0       0       0       0       0       0       0       0       0
Total ram usage:       12 bytes
 Hardware stack levels used:    1
 Hardware stack levels required when called:    4
 This function calls:
		_RF24EC_read
		_millis
 This function is called by:
		_RF24EC_findMulti
 This function uses a non-reentrant model


 *************** function _RF24EC_read *****************
 Defined at:
		line 504 in file "../../../RF24Ethernet_cg/RF24Client_cg.c"
 Parameters:    Size  Location     Type
		None
 Auto vars:     Size  Location     Type
  c               1   29[COMRAM] unsigned char 
 Return value:  Size  Location     Type
                  2   27[COMRAM] int 
 Registers used:
		wreg, fsr0l, fsr0h, fsr2l, fsr2h, status,2, status,0, tblptrl, tblptrh, tblptru, prodl, prodh, cstack
 Tracked objects:
		On entry : 
		On exit  : 
		Unchanged: 
 Data sizes:     COMRAM   BANK0   BANK1   BANK2   BANK3   BANK4   BANK5   BANK6   BANK7   BANK8   BANK9  BANK10  BANK11  BANK12  BANK13  BANK14  BANK15
      Params:         2       0       0       0       0       0       0       0       0       0       0       0       0       0       0       0       0
      Locals:         1       0       0       0       0       0       0       0       0       0       0       0       0       0       0       0       0
      Temps:          0       0       0       0       0       0       0       0       0       0       0       0       0       0       0       0       0
      Totals:         3       0       0       0       0       0       0       0       0       0       0       0       0       0       0       0       0
Total ram usage:        3 bytes
 Hardware stack levels used:    1
 Hardware stack levels required when called:    3
 This function calls:
		_RF24EC_read_b
 This function is called by:
		_loop
		_RF24EC_timedRead
		_RF24EC_parseInt
		_RF24EC_peekNextDigit
 This function uses a non-reentrant model


 *************** function _RF24EC_read_b *****************
 Defined at:
		line 461 in file "../../../RF24Ethernet_cg/RF24Client_cg.c"
 Parameters:    Size  Location     Type
  buf             2   15[COMRAM] PTR unsigned char 
		 -> RF24EC_read@c(1), 
  size            2   17[COMRAM] unsigned int 
 Auto vars:     Size  Location     Type
		None
 Return value:  Size  Location     Type
                  2   15[COMRAM] int 
 Registers used:
		wreg, fsr0l, fsr0h, fsr2l, fsr2h, status,2, status,0, tblptrl, tblptrh, tblptru, prodl, prodh, cstack
 Tracked objects:
		On entry : 
		On exit  : 
		Unchanged: 
 Data sizes:     COMRAM   BANK0   BANK1   BANK2   BANK3   BANK4   BANK5   BANK6   BANK7   BANK8   BANK9  BANK10  BANK11  BANK12  BANK13  BANK14  BANK15
      Params:         4       0       0       0       0       0       0       0       0       0       0       0       0       0       0       0       0
      Locals:         0       0       0       0       0       0       0       0       0       0       0       0       0       0       0       0       0
      Temps:          8       0       0       0       0       0       0       0       0       0       0       0       0       0       0       0       0
      Totals:        12       0       0       0       0       0       0       0       0       0       0       0       0       0       0       0       0
Total ram usage:       12 bytes
 Hardware stack levels used:    1
 Hardware stack levels required when called:    2
 This function calls:
		_memcpy
 This function is called by:
		_RF24EC_read
 This function uses a non-reentrant model


 *************** function _RF24EC_available *****************
 Defined at:
		line 443 in file "../../../RF24Ethernet_cg/RF24Client_cg.c"
 Parameters:    Size  Location     Type
		None
 Auto vars:     Size  Location     Type
		None
 Return value:  Size  Location     Type
                  2   16[BANK0 ] int 
 Registers used:
		wreg, fsr0l, fsr0h, fsr1l, fsr1h, fsr2l, fsr2h, status,2, status,0, pclat, btemp, btemp+1, btemp+2, btemp+3, btemp+4, btemp+5, btemp+6, btemp+7, btemp+8, btemp+9, btemp+10, btemp+11, tosl, structret, tblptrl, tblptrh, tblptru, prodl, prodh, bsr, cstack
 Tracked objects:
		On entry : 
		On exit  : 
		Unchanged: 
 Data sizes:     COMRAM   BANK0   BANK1   BANK2   BANK3   BANK4   BANK5   BANK6   BANK7   BANK8   BANK9  BANK10  BANK11  BANK12  BANK13  BANK14  BANK15
      Params:         0       2       0       0       0       0       0       0       0       0       0       0       0       0       0       0       0
      Locals:         0       0       0       0       0       0       0       0       0       0       0       0       0       0       0       0       0
      Temps:          0       0       0       0       0       0       0       0       0       0       0       0       0       0       0       0       0
      Totals:         0       2       0       0       0       0       0       0       0       0       0       0       0       0       0       0       0
Total ram usage:        2 bytes
 Hardware stack levels used:    1
 Hardware stack levels required when called:   15
 This function calls:
		_RF24EC__available
		_RF24E_tick
 This function is called by:
		_loop
		_RF24EC_waitAvailable
		_RF24EC_peek
 This function uses a non-reentrant model


 *************** function _RF24E_tick *****************
 Defined at:
		line 224 in file "../../../RF24Ethernet_cg/RF24Ethernet_cg.c"
 Parameters:    Size  Location     Type
		None
 Auto vars:     Size  Location     Type
  i               2  106[COMRAM] int 
 Return value:  Size  Location     Type
                  1    wreg      void 
 Registers used:
		wreg, fsr0l, fsr0h, fsr1l, fsr1h, fsr2l, fsr2h, status,2, status,0, pclat, btemp, btemp+1, btemp+2, btemp+3, btemp+4, btemp+5, btemp+6, btemp+7, btemp+8, btemp+9, btemp+10, btemp+11, tosl, structret, tblptrl, tblptrh, tblptru, prodl, prodh, bsr, cstack
 Tracked objects:
		On entry : 
		On exit  : 
		Unchanged: 
 Data sizes:     COMRAM   BANK0   BANK1   BANK2   BANK3   BANK4   BANK5   BANK6   BANK7   BANK8   BANK9  BANK10  BANK11  BANK12  BANK13  BANK14  BANK15
      Params:         0       0       0       0       0       0       0       0       0       0       0       0       0       0       0       0       0
      Locals:         2       0       0       0       0       0       0       0       0       0       0       0       0       0       0       0       0
      Temps:          0       0       0       0       0       0       0       0       0       0       0       0       0       0       0       0       0
      Totals:         2       0       0       0       0       0       0       0       0       0       0       0       0       0       0       0       0
Total ram usage:        2 bytes
 Hardware stack levels used:    1
 Hardware stack levels required when called:   14
 This function calls:
		_RF24E_network_send
		_RF24N_getFrag_ptr
		_RF24N_update
		___wmul
		_timer_expired
		_timer_reset
		_uip_process
 This function is called by:
		_RF24EC_stop
		_RF24EC_valid
		_RF24EC__write
		_RF24EC_available
		_RF24ES_available
		_RF24ES_begin
		_RF24EC_connect
		_RF24EC_waitAvailable
		_RF24E_update
 This function uses a non-reentrant model


 *************** function _uip_process *****************
 Defined at:
		line 690 in file "../../utility/uip.c"
 Parameters:    Size  Location     Type
  flag            1    wreg     unsigned char 
 Auto vars:     Size  Location     Type
  flag            1   55[COMRAM] unsigned char 
  m               1   56[COMRAM] char 
  uip_connr       2   57[COMRAM] PTR struct uip_conn
		 -> NULL(0), uip_conns(30), 
 Return value:  Size  Location     Type
                  1    wreg      void 
 Registers used:
		wreg, fsr0l, fsr0h, fsr2l, fsr2h, status,2, status,0, tblptrl, tblptrh, tblptru, prodl, prodh, cstack
 Tracked objects:
		On entry : 
		On exit  : 
		Unchanged: 
 Data sizes:     COMRAM   BANK0   BANK1   BANK2   BANK3   BANK4   BANK5   BANK6   BANK7   BANK8   BANK9  BANK10  BANK11  BANK12  BANK13  BANK14  BANK15
      Params:         0       0       0       0       0       0       0       0       0       0       0       0       0       0       0       0       0
      Locals:        10       0       0       0       0       0       0       0       0       0       0       0       0       0       0       0       0
      Temps:          8       0       0       0       0       0       0       0       0       0       0       0       0       0       0       0       0
      Totals:        18       0       0       0       0       0       0       0       0       0       0       0       0       0       0       0       0
Total ram usage:       18 bytes
 Hardware stack levels used:    1
 Hardware stack levels required when called:    4
 This function calls:
		_serialip_appcall
		_uip_add32
		_uip_add_rcv_nxt
		_uip_ipchksum
		_uip_tcpchksum
 This function is called by:
		_RF24E_tick
 This function uses a non-reentrant model


 *************** function _uip_tcpchksum *****************
 Defined at:
		line 372 in file "../../utility/uip.c"
 Parameters:    Size  Location     Type
		None
 Auto vars:     Size  Location     Type
		None
 Return value:  Size  Location     Type
                  2   29[COMRAM] unsigned int 
 Registers used:
		wreg, fsr2l, fsr2h, status,2, status,0, cstack
 Tracked objects:
		On entry : 
		On exit  : 
		Unchanged: 
 Data sizes:     COMRAM   BANK0   BANK1   BANK2   BANK3   BANK4   BANK5   BANK6   BANK7   BANK8   BANK9  BANK10  BANK11  BANK12  BANK13  BANK14  BANK15
      Params:         2       0       0       0       0       0       0       0       0       0       0       0       0       0       0       0       0
      Locals:         0       0       0       0       0       0       0       0       0       0       0       0       0       0       0       0       0
      Temps:          0       0       0       0       0       0       0       0       0       0       0       0       0       0       0       0       0
      Totals:         2       0       0       0       0       0       0       0       0       0       0       0       0       0       0       0       0
Total ram usage:        2 bytes
 Hardware stack levels used:    1
 Hardware stack levels required when called:    3
 This function calls:
		_upper_layer_chksum
 This function is called by:
		_uip_process
		_uip_split_output
 This function uses a non-reentrant model


 *************** function _upper_layer_chksum *****************
 Defined at:
		line 337 in file "../../utility/uip.c"
 Parameters:    Size  Location     Type
  proto           1    wreg     unsigned char 
 Auto vars:     Size  Location     Type
  proto           1   24[COMRAM] unsigned char 
  sum             2   27[COMRAM] unsigned int 
  upper_layer_    2   25[COMRAM] unsigned int 
 Return value:  Size  Location     Type
                  2   18[COMRAM] unsigned int 
 Registers used:
		wreg, fsr2l, fsr2h, status,2, status,0, cstack
 Tracked objects:
		On entry : 
		On exit  : 
		Unchanged: 
 Data sizes:     COMRAM   BANK0   BANK1   BANK2   BANK3   BANK4   BANK5   BANK6   BANK7   BANK8   BANK9  BANK10  BANK11  BANK12  BANK13  BANK14  BANK15
      Params:         2       0       0       0       0       0       0       0       0       0       0       0       0       0       0       0       0
      Locals:         5       0       0       0       0       0       0       0       0       0       0       0       0       0       0       0       0
      Temps:          4       0       0       0       0       0       0       0       0       0       0       0       0       0       0       0       0
      Totals:        11       0       0       0       0       0       0       0       0       0       0       0       0       0       0       0       0
Total ram usage:       11 bytes
 Hardware stack levels used:    1
 Hardware stack levels required when called:    2
 This function calls:
		_chksum
		_htons
 This function is called by:
		_uip_tcpchksum
 This function uses a non-reentrant model


 *************** function _uip_ipchksum *****************
 Defined at:
		line 326 in file "../../utility/uip.c"
 Parameters:    Size  Location     Type
		None
 Auto vars:     Size  Location     Type
  sum             2   20[COMRAM] unsigned int 
 Return value:  Size  Location     Type
                  2   18[COMRAM] unsigned int 
 Registers used:
		wreg, fsr2l, fsr2h, status,2, status,0, cstack
 Tracked objects:
		On entry : 
		On exit  : 
		Unchanged: 
 Data sizes:     COMRAM   BANK0   BANK1   BANK2   BANK3   BANK4   BANK5   BANK6   BANK7   BANK8   BANK9  BANK10  BANK11  BANK12  BANK13  BANK14  BANK15
      Params:         2       0       0       0       0       0       0       0       0       0       0       0       0       0       0       0       0
      Locals:         2       0       0       0       0       0       0       0       0       0       0       0       0       0       0       0       0
      Temps:          0       0       0       0       0       0       0       0       0       0       0       0       0       0       0       0       0
      Totals:         4       0       0       0       0       0       0       0       0       0       0       0       0       0       0       0       0
Total ram usage:        4 bytes
 Hardware stack levels used:    1
 Hardware stack levels required when called:    2
 This function calls:
		_chksum
		_htons
 This function is called by:
		_uip_process
		_time_exceeded
		_uip_split_output
 This function uses a non-reentrant model


 *************** function _htons *****************
 Defined at:
		line 1890 in file "../../utility/uip.c"
 Parameters:    Size  Location     Type
  val             2    2[COMRAM] unsigned int 
 Auto vars:     Size  Location     Type
		None
 Return value:  Size  Location     Type
                  2    2[COMRAM] unsigned int 
 Registers used:
		wreg, status,2
 Tracked objects:
		On entry : 
		On exit  : 
		Unchanged: 
 Data sizes:     COMRAM   BANK0   BANK1   BANK2   BANK3   BANK4   BANK5   BANK6   BANK7   BANK8   BANK9  BANK10  BANK11  BANK12  BANK13  BANK14  BANK15
      Params:         2       0       0       0       0       0       0       0       0       0       0       0       0       0       0       0       0
      Locals:         0       0       0       0       0       0       0       0       0       0       0       0       0       0       0       0       0
      Temps:          3       0       0       0       0       0       0       0       0       0       0       0       0       0       0       0       0
      Totals:         5       0       0       0       0       0       0       0       0       0       0       0       0       0       0       0       0
Total ram usage:        5 bytes
 Hardware stack levels used:    1
 Hardware stack levels required when called:    1
 This function calls:
		Nothing
 This function is called by:
		_generate_tcp_stats
		_uip_ipchksum
		_upper_layer_chksum
		_RF24ES_init
		_uip_chksum
		_uip_connect
		_RF24EC_connect
 This function uses a non-reentrant model


 *************** function _chksum *****************
 Defined at:
		line 288 in file "../../utility/uip.c"
 Parameters:    Size  Location     Type
  sum             2    2[COMRAM] unsigned int 
  data            2    4[COMRAM] PTR const unsigned char 
		 -> rn.srcipaddr(4), rn.frame_buffer(32), rn.frag_queue_message_buffer(144), rn(370), 
		 -> NULL(0), 
  len             2    6[COMRAM] unsigned int 
 Auto vars:     Size  Location     Type
  dataptr         2   16[COMRAM] PTR const unsigned char 
		 -> rn.srcipaddr(4), rn.frame_buffer(32), rn.frag_queue_message_buffer(144), rn(370), 
		 -> NULL(0), 
  t               2   14[COMRAM] unsigned int 
  last_byte       2   12[COMRAM] PTR const unsigned char 
		 -> rn.srcipaddr(4), rn.frame_buffer(32), rn.frag_queue_message_buffer(144), rn(370), 
		 -> NULL(0), 
 Return value:  Size  Location     Type
                  2    2[COMRAM] unsigned int 
 Registers used:
		wreg, fsr2l, fsr2h, status,2, status,0
 Tracked objects:
		On entry : 
		On exit  : 
		Unchanged: 
 Data sizes:     COMRAM   BANK0   BANK1   BANK2   BANK3   BANK4   BANK5   BANK6   BANK7   BANK8   BANK9  BANK10  BANK11  BANK12  BANK13  BANK14  BANK15
      Params:         6       0       0       0       0       0       0       0       0       0       0       0       0       0       0       0       0
      Locals:         6       0       0       0       0       0       0       0       0       0       0       0       0       0       0       0       0
      Temps:          4       0       0       0       0       0       0       0       0       0       0       0       0       0       0       0       0
      Totals:        16       0       0       0       0       0       0       0       0       0       0       0       0       0       0       0       0
Total ram usage:       16 bytes
 Hardware stack levels used:    1
 Hardware stack levels required when called:    1
 This function calls:
		Nothing
 This function is called by:
		_uip_ipchksum
		_upper_layer_chksum
		_uip_chksum
 This function uses a non-reentrant model


 *************** function _uip_add_rcv_nxt *****************
 Defined at:
		line 680 in file "../../utility/uip.c"
 Parameters:    Size  Location     Type
  n               2   10[COMRAM] unsigned int 
 Auto vars:     Size  Location     Type
		None
 Return value:  Size  Location     Type
                  1    wreg      void 
 Registers used:
		wreg, fsr2l, fsr2h, status,2, status,0, cstack
 Tracked objects:
		On entry : 
		On exit  : 
		Unchanged: 
 Data sizes:     COMRAM   BANK0   BANK1   BANK2   BANK3   BANK4   BANK5   BANK6   BANK7   BANK8   BANK9  BANK10  BANK11  BANK12  BANK13  BANK14  BANK15
      Params:         2       0       0       0       0       0       0       0       0       0       0       0       0       0       0       0       0
      Locals:         0       0       0       0       0       0       0       0       0       0       0       0       0       0       0       0       0
      Temps:          0       0       0       0       0       0       0       0       0       0       0       0       0       0       0       0       0
      Totals:         2       0       0       0       0       0       0       0       0       0       0       0       0       0       0       0       0
Total ram usage:        2 bytes
 Hardware stack levels used:    1
 Hardware stack levels required when called:    2
 This function calls:
		_uip_add32
 This function is called by:
		_uip_process
 This function uses a non-reentrant model


 *************** function _uip_add32 *****************
 Defined at:
		line 257 in file "../../utility/uip.c"
 Parameters:    Size  Location     Type
  op32            2    2[COMRAM] PTR unsigned char 
		 -> rn.frame_buffer(32), rn.frag_queue_message_buffer(144), rn(370), NULL(0), 
		 -> uip_conns(30), 
  op16            2    4[COMRAM] unsigned int 
 Auto vars:     Size  Location     Type
		None
 Return value:  Size  Location     Type
                  1    wreg      void 
 Registers used:
		wreg, fsr2l, fsr2h, status,2, status,0
 Tracked objects:
		On entry : 
		On exit  : 
		Unchanged: 
 Data sizes:     COMRAM   BANK0   BANK1   BANK2   BANK3   BANK4   BANK5   BANK6   BANK7   BANK8   BANK9  BANK10  BANK11  BANK12  BANK13  BANK14  BANK15
      Params:         4       0       0       0       0       0       0       0       0       0       0       0       0       0       0       0       0
      Locals:         0       0       0       0       0       0       0       0       0       0       0       0       0       0       0       0       0
      Temps:          4       0       0       0       0       0       0       0       0       0       0       0       0       0       0       0       0
      Totals:         8       0       0       0       0       0       0       0       0       0       0       0       0       0       0       0       0
Total ram usage:        8 bytes
 Hardware stack levels used:    1
 Hardware stack levels required when called:    1
 This function calls:
		Nothing
 This function is called by:
		_uip_add_rcv_nxt
		_uip_process
		_uip_split_output
 This function uses a non-reentrant model


 *************** function _serialip_appcall *****************
 Defined at:
		line 244 in file "../../../RF24Ethernet_cg/RF24Client_cg.c"
 Parameters:    Size  Location     Type
		None
 Auto vars:     Size  Location     Type
  u               2   39[COMRAM] PTR struct .
		 -> ?_sprintf(2), ?_printf(2), all_data(234), RF24M_getAddress@nodeID(1), 
		 -> NULL(0), stats_page@buffer(45), main_page@bf(103), STR_4(10), 
		 -> STR_3(15), STR_2(4), STR_1(3), 
 Return value:  Size  Location     Type
                  1    wreg      void 
 Registers used:
		wreg, fsr0l, fsr0h, fsr2l, fsr2h, status,2, status,0, tblptrl, tblptrh, tblptru, prodl, prodh, cstack
 Tracked objects:
		On entry : 
		On exit  : 
		Unchanged: 
 Data sizes:     COMRAM   BANK0   BANK1   BANK2   BANK3   BANK4   BANK5   BANK6   BANK7   BANK8   BANK9  BANK10  BANK11  BANK12  BANK13  BANK14  BANK15
      Params:         0       0       0       0       0       0       0       0       0       0       0       0       0       0       0       0       0
      Locals:         6       0       0       0       0       0       0       0       0       0       0       0       0       0       0       0       0
      Temps:         16       0       0       0       0       0       0       0       0       0       0       0       0       0       0       0       0
      Totals:        22       0       0       0       0       0       0       0       0       0       0       0       0       0       0       0       0
Total ram usage:       22 bytes
 Hardware stack levels used:    1
 Hardware stack levels required when called:    3
 This function calls:
		_RF24EC__allocateData
		_memcpy
		_millis
		_uip_send
 This function is called by:
		_uip_process
 This function uses a non-reentrant model


 *************** function _uip_send *****************
 Defined at:
		line 1896 in file "../../utility/uip.c"
 Parameters:    Size  Location     Type
  data            2   15[COMRAM] PTR const void 
		 -> main_page@bf.myData(103), stats_page@buffer.myData(103), RF24M_getAddress@nodeID.myData(103), all_data.myData(103), 
		 -> ?_printf.myData(103), ?_sprintf.myData(103), all_data(234), rn(370), 
		 -> NULL(0), STR_4(10), STR_3(15), STR_2(4), 
		 -> STR_1(3), 
  len             2   17[COMRAM] int 
 Auto vars:     Size  Location     Type
		None
 Return value:  Size  Location     Type
                  1    wreg      void 
 Registers used:
		wreg, fsr0l, fsr0h, fsr2l, fsr2h, status,2, status,0, tblptrl, tblptrh, tblptru, cstack
 Tracked objects:
		On entry : 
		On exit  : 
		Unchanged: 
 Data sizes:     COMRAM   BANK0   BANK1   BANK2   BANK3   BANK4   BANK5   BANK6   BANK7   BANK8   BANK9  BANK10  BANK11  BANK12  BANK13  BANK14  BANK15
      Params:         4       0       0       0       0       0       0       0       0       0       0       0       0       0       0       0       0
      Locals:         0       0       0       0       0       0       0       0       0       0       0       0       0       0       0       0       0
      Temps:          0       0       0       0       0       0       0       0       0       0       0       0       0       0       0       0       0
      Totals:         4       0       0       0       0       0       0       0       0       0       0       0       0       0       0       0       0
Total ram usage:        4 bytes
 Hardware stack levels used:    1
 Hardware stack levels required when called:    2
 This function calls:
		_memcpy
 This function is called by:
		_serialip_appcall
		_send_data
 This function uses a non-reentrant model


 *************** function _RF24EC__allocateData *****************
 Defined at:
		line 411 in file "../../../RF24Ethernet_cg/RF24Client_cg.c"
 Parameters:    Size  Location     Type
		None
 Auto vars:     Size  Location     Type
  data            2    5[COMRAM] PTR struct .
		 -> all_data(234), 
  sock            1    4[COMRAM] unsigned char 
 Return value:  Size  Location     Type
                  2    2[COMRAM] PTR struct .
 Registers used:
		wreg, fsr2l, fsr2h, status,2, status,0, prodl, prodh
 Tracked objects:
		On entry : 
		On exit  : 
		Unchanged: 
 Data sizes:     COMRAM   BANK0   BANK1   BANK2   BANK3   BANK4   BANK5   BANK6   BANK7   BANK8   BANK9  BANK10  BANK11  BANK12  BANK13  BANK14  BANK15
      Params:         2       0       0       0       0       0       0       0       0       0       0       0       0       0       0       0       0
      Locals:         3       0       0       0       0       0       0       0       0       0       0       0       0       0       0       0       0
      Temps:          0       0       0       0       0       0       0       0       0       0       0       0       0       0       0       0       0
      Totals:         5       0       0       0       0       0       0       0       0       0       0       0       0       0       0       0       0
Total ram usage:        5 bytes
 Hardware stack levels used:    1
 Hardware stack levels required when called:    1
 This function calls:
		Nothing
 This function is called by:
		_serialip_appcall
 This function uses a non-reentrant model


 *************** function _timer_reset *****************
 Defined at:
		line 84 in file "../../utility/timer.c"
 Parameters:    Size  Location     Type
  t               2    2[COMRAM] PTR struct timer
		 -> ec(22), 
 Auto vars:     Size  Location     Type
		None
 Return value:  Size  Location     Type
                  1    wreg      void 
 Registers used:
		wreg, fsr2l, fsr2h, status,2, status,0
 Tracked objects:
		On entry : 
		On exit  : 
		Unchanged: 
 Data sizes:     COMRAM   BANK0   BANK1   BANK2   BANK3   BANK4   BANK5   BANK6   BANK7   BANK8   BANK9  BANK10  BANK11  BANK12  BANK13  BANK14  BANK15
      Params:         2       0       0       0       0       0       0       0       0       0       0       0       0       0       0       0       0
      Locals:         0       0       0       0       0       0       0       0       0       0       0       0       0       0       0       0       0
      Temps:          4       0       0       0       0       0       0       0       0       0       0       0       0       0       0       0       0
      Totals:         6       0       0       0       0       0       0       0       0       0       0       0       0       0       0       0       0
Total ram usage:        6 bytes
 Hardware stack levels used:    1
 Hardware stack levels required when called:    1
 This function calls:
		Nothing
 This function is called by:
		_RF24E_tick
 This function uses a non-reentrant model


 *************** function _timer_expired *****************
 Defined at:
		line 121 in file "../../utility/timer.c"
 Parameters:    Size  Location     Type
  t               2   10[COMRAM] PTR struct timer
		 -> ec(22), 
 Auto vars:     Size  Location     Type
		None
 Return value:  Size  Location     Type
                  2   10[COMRAM] int 
 Registers used:
		wreg, fsr0l, fsr0h, fsr2l, fsr2h, status,2, status,0, cstack
 Tracked objects:
		On entry : 
		On exit  : 
		Unchanged: 
 Data sizes:     COMRAM   BANK0   BANK1   BANK2   BANK3   BANK4   BANK5   BANK6   BANK7   BANK8   BANK9  BANK10  BANK11  BANK12  BANK13  BANK14  BANK15
      Params:         2       0       0       0       0       0       0       0       0       0       0       0       0       0       0       0       0
      Locals:         0       0       0       0       0       0       0       0       0       0       0       0       0       0       0       0       0
      Temps:         12       0       0       0       0       0       0       0       0       0       0       0       0       0       0       0       0
      Totals:        14       0       0       0       0       0       0       0       0       0       0       0       0       0       0       0       0
Total ram usage:       14 bytes
 Hardware stack levels used:    1
 Hardware stack levels required when called:    3
 This function calls:
		_clock_time
 This function is called by:
		_RF24E_tick
 This function uses a non-reentrant model


 *************** function _clock_time *****************
 Defined at:
		line 28 in file "../../clock-arch.c"
 Parameters:    Size  Location     Type
		None
 Auto vars:     Size  Location     Type
		None
 Return value:  Size  Location     Type
                  4    6[COMRAM] unsigned long 
 Registers used:
		cstack
 Tracked objects:
		On entry : 
		On exit  : 
		Unchanged: 
 Data sizes:     COMRAM   BANK0   BANK1   BANK2   BANK3   BANK4   BANK5   BANK6   BANK7   BANK8   BANK9  BANK10  BANK11  BANK12  BANK13  BANK14  BANK15
      Params:         4       0       0       0       0       0       0       0       0       0       0       0       0       0       0       0       0
      Locals:         0       0       0       0       0       0       0       0       0       0       0       0       0       0       0       0       0
      Temps:          0       0       0       0       0       0       0       0       0       0       0       0       0       0       0       0       0
      Totals:         4       0       0       0       0       0       0       0       0       0       0       0       0       0       0       0       0
Total ram usage:        4 bytes
 Hardware stack levels used:    1
 Hardware stack levels required when called:    2
 This function calls:
		_millis
 This function is called by:
		_timer_set
		_timer_expired
		_timer_restart
 This function uses a non-reentrant model


 *************** function _RF24N_getFrag_ptr *****************
 Defined at:
		line 1439 in file "../../../RF24Network_cg/RF24Network_cg.c"
 Parameters:    Size  Location     Type
		None
 Auto vars:     Size  Location     Type
		None
 Return value:  Size  Location     Type
                  2    2[COMRAM] PTR struct .
 Registers used:
		None
 Tracked objects:
		On entry : 
		On exit  : 
		Unchanged: 
 Data sizes:     COMRAM   BANK0   BANK1   BANK2   BANK3   BANK4   BANK5   BANK6   BANK7   BANK8   BANK9  BANK10  BANK11  BANK12  BANK13  BANK14  BANK15
      Params:         2       0       0       0       0       0       0       0       0       0       0       0       0       0       0       0       0
      Locals:         0       0       0       0       0       0       0       0       0       0       0       0       0       0       0       0       0
      Temps:          0       0       0       0       0       0       0       0       0       0       0       0       0       0       0       0       0
      Totals:         2       0       0       0       0       0       0       0       0       0       0       0       0       0       0       0       0
Total ram usage:        2 bytes
 Hardware stack levels used:    1
 Hardware stack levels required when called:    1
 This function calls:
		Nothing
 This function is called by:
		_RF24E_configure
		_RF24E_tick
 This function uses a non-reentrant model


 *************** function _RF24E_network_send *****************
 Defined at:
		line 313 in file "../../../RF24Ethernet_cg/RF24Ethernet_cg.c"
 Parameters:    Size  Location     Type
		None
 Auto vars:     Size  Location     Type
  headerOut       8    8[BANK0 ] struct .
  ok              1    7[BANK0 ] unsigned char 
 Return value:  Size  Location     Type
                  2  2467[None  ] int 
 Registers used:
		wreg, fsr0l, fsr0h, fsr1l, fsr1h, fsr2l, fsr2h, status,2, status,0, pclat, btemp, btemp+1, btemp+2, btemp+3, btemp+4, btemp+5, btemp+6, btemp+7, btemp+8, btemp+9, btemp+10, btemp+11, tosl, structret, tblptrl, tblptrh, tblptru, prodl, prodh, bsr, cstack
 Tracked objects:
		On entry : 
		On exit  : 
		Unchanged: 
 Data sizes:     COMRAM   BANK0   BANK1   BANK2   BANK3   BANK4   BANK5   BANK6   BANK7   BANK8   BANK9  BANK10  BANK11  BANK12  BANK13  BANK14  BANK15
      Params:         0       0       0       0       0       0       0       0       0       0       0       0       0       0       0       0       0
      Locals:         0       9       0       0       0       0       0       0       0       0       0       0       0       0       0       0       0
      Temps:          0       0       0       0       0       0       0       0       0       0       0       0       0       0       0       0       0
      Totals:         0       9       0       0       0       0       0       0       0       0       0       0       0       0       0       0       0
Total ram usage:        9 bytes
 Hardware stack levels used:    1
 Hardware stack levels required when called:   13
 This function calls:
		_RF24NH_init
		_RF24N_write_m
 This function is called by:
		_RF24E_tick
 This function uses a non-reentrant model


 *************** function _RF24N_write_m *****************
 Defined at:
		line 791 in file "../../../RF24Network_cg/RF24Network_cg.c"
 Parameters:    Size  Location     Type
  header          2    0[BANK0 ] PTR struct .
		 -> RF24E_network_send@headerOut(8), RF24M_DHCP@header(8), RF24M_requestAddress@header(8), RF24M_releaseAddress@header(8), 
		 -> RF24M_getNodeID@header(8), RF24M_getAddress@header(8), RF24M_checkConnection@header(8), RF24M_write_n@header(8), 
		 -> rn.frame_buffer(32), rn(370), 
  message         3    2[BANK0 ] PTR const void 
		 -> RF24M_DHCP@newAddress(2), RF24M_getNodeID@address(2), RF24M_getAddress@nodeID(1), RF24M_update@returnAddr_3829(2), 
		 -> RF24M_update@returnAddr(2), rn.frame_buffer(32), rn.frag_queue_message_buffer(144), rn(370), 
		 -> ROM(65535), NULL(0), 
  len             2    5[BANK0 ] unsigned int 
 Auto vars:     Size  Location     Type
		None
 Return value:  Size  Location     Type
                  1    wreg      unsigned char 
 Registers used:
		wreg, fsr0l, fsr0h, fsr1l, fsr1h, fsr2l, fsr2h, status,2, status,0, pclat, btemp, btemp+1, btemp+2, btemp+3, btemp+4, btemp+5, btemp+6, btemp+7, btemp+8, btemp+9, btemp+10, btemp+11, tosl, structret, tblptrl, tblptrh, tblptru, prodl, prodh, bsr, cstack
 Tracked objects:
		On entry : 
		On exit  : 
		Unchanged: 
 Data sizes:     COMRAM   BANK0   BANK1   BANK2   BANK3   BANK4   BANK5   BANK6   BANK7   BANK8   BANK9  BANK10  BANK11  BANK12  BANK13  BANK14  BANK15
      Params:         0       7       0       0       0       0       0       0       0       0       0       0       0       0       0       0       0
      Locals:         0       0       0       0       0       0       0       0       0       0       0       0       0       0       0       0       0
      Temps:          0       0       0       0       0       0       0       0       0       0       0       0       0       0       0       0       0
      Totals:         0       7       0       0       0       0       0       0       0       0       0       0       0       0       0       0       0
Total ram usage:        7 bytes
 Hardware stack levels used:    1
 Hardware stack levels required when called:   12
 This function calls:
		_RF24N_write_
 This function is called by:
		_RF24M_update
		_RF24M_checkConnection
		_RF24M_getAddress
		_RF24M_getNodeID
		_RF24M_requestAddress
		_RF24E_network_send
		_RF24M_write_n
		_RF24M_releaseAddress
		_RF24M_DHCP
 This function uses a non-reentrant model


 *************** function _RF24N_write_ *****************
 Defined at:
		line 795 in file "../../../RF24Network_cg/RF24Network_cg.c"
 Parameters:    Size  Location     Type
  header          2   80[COMRAM] PTR struct .
		 -> RF24E_network_send@headerOut(8), RF24M_DHCP@header(8), RF24M_requestAddress@header(8), RF24M_releaseAddress@header(8), 
		 -> RF24M_getNodeID@header(8), RF24M_getAddress@header(8), RF24M_checkConnection@header(8), RF24M_write_n@header(8), 
		 -> rn.frame_buffer(32), rn(370), 
  message         3   82[COMRAM] PTR const void 
		 -> RF24M_DHCP@newAddress(2), RF24M_getNodeID@address(2), RF24M_getAddress@nodeID(1), RF24M_update@returnAddr_3829(2), 
		 -> RF24M_update@returnAddr(2), rn.frame_buffer(32), rn.frag_queue_message_buffer(144), rn(370), 
		 -> ROM(65535), NULL(0), 
  len             2   85[COMRAM] unsigned int 
  writeDirect     2   87[COMRAM] unsigned int 
 Auto vars:     Size  Location     Type
  offset          2  102[COMRAM] unsigned int 
  fragmentLen     2   99[COMRAM] unsigned int 
  fragment_id     1  105[COMRAM] unsigned char 
  ok              1  104[COMRAM] unsigned char 
  msgCount        1  101[COMRAM] unsigned char 
  type            1   98[COMRAM] unsigned char 
  retriesPerFr    1   97[COMRAM] unsigned char 
 Return value:  Size  Location     Type
                  1    wreg      unsigned char 
 Registers used:
		wreg, fsr0l, fsr0h, fsr1l, fsr1h, fsr2l, fsr2h, status,2, status,0, pclat, btemp, btemp+1, btemp+2, btemp+3, btemp+4, btemp+5, btemp+6, btemp+7, btemp+8, btemp+9, btemp+10, btemp+11, tosl, structret, tblptrl, tblptrh, tblptru, prodl, prodh, bsr, cstack
 Tracked objects:
		On entry : 
		On exit  : 
		Unchanged: 
 Data sizes:     COMRAM   BANK0   BANK1   BANK2   BANK3   BANK4   BANK5   BANK6   BANK7   BANK8   BANK9  BANK10  BANK11  BANK12  BANK13  BANK14  BANK15
      Params:         9       0       0       0       0       0       0       0       0       0       0       0       0       0       0       0       0
      Locals:         9       0       0       0       0       0       0       0       0       0       0       0       0       0       0       0       0
      Temps:          8       0       0       0       0       0       0       0       0       0       0       0       0       0       0       0       0
      Totals:        26       0       0       0       0       0       0       0       0       0       0       0       0       0       0       0       0
Total ram usage:       26 bytes
 Hardware stack levels used:    1
 Hardware stack levels required when called:   11
 This function calls:
		_RF24N__write
		_RF24N_update
		_RF24_setAutoAck_p
		_RF24_startListening
		_RF24_stopListening
		_RF24_txStandBy_t
		___lwdiv
		___lwmod
		___wmul
		_delay
		_delayMicroseconds
		_millis
 This function is called by:
		_RF24N_multicast
		_RF24N_write_m
		_RF24M_requestAddress
		_RF24M_DHCP
 This function uses a non-reentrant model


 *************** function ___wmul *****************
 Defined at:
		line 15 in file "/opt/microchip/xc8/v1.38/sources/common/Umul16.c"
 Parameters:    Size  Location     Type
  multiplier      2    2[COMRAM] unsigned int 
  multiplicand    2    4[COMRAM] unsigned int 
 Auto vars:     Size  Location     Type
  product         2    6[COMRAM] unsigned int 
 Return value:  Size  Location     Type
                  2    2[COMRAM] unsigned int 
 Registers used:
		wreg, status,2, status,0, prodl, prodh
 Tracked objects:
		On entry : 
		On exit  : 
		Unchanged: 
 Data sizes:     COMRAM   BANK0   BANK1   BANK2   BANK3   BANK4   BANK5   BANK6   BANK7   BANK8   BANK9  BANK10  BANK11  BANK12  BANK13  BANK14  BANK15
      Params:         4       0       0       0       0       0       0       0       0       0       0       0       0       0       0       0       0
      Locals:         2       0       0       0       0       0       0       0       0       0       0       0       0       0       0       0       0
      Temps:          0       0       0       0       0       0       0       0       0       0       0       0       0       0       0       0       0
      Totals:         6       0       0       0       0       0       0       0       0       0       0       0       0       0       0       0       0
Total ram usage:        6 bytes
 Hardware stack levels used:    1
 Hardware stack levels required when called:    1
 This function calls:
		Nothing
 This function is called by:
		_RF24N_begin_d
		_RF24N_write_
		_RF24M_renewAddress
		_RF24M_setAddress
		_RF24EC_findMulti
		_RF24E_tick
		__doprnt
		_fwcache_register
		_uip_neighbor_init
		_uip_neighbor_periodic
		_uip_neighbor_add
		_find_entry
 This function uses a non-reentrant model


 *************** function ___lwmod *****************
 Defined at:
		line 8 in file "/opt/microchip/xc8/v1.38/sources/common/lwmod.c"
 Parameters:    Size  Location     Type
  dividend        2    2[COMRAM] unsigned int 
  divisor         2    4[COMRAM] unsigned int 
 Auto vars:     Size  Location     Type
  counter         1    6[COMRAM] unsigned char 
 Return value:  Size  Location     Type
                  2    2[COMRAM] unsigned int 
 Registers used:
		wreg, status,2, status,0
 Tracked objects:
		On entry : 
		On exit  : 
		Unchanged: 
 Data sizes:     COMRAM   BANK0   BANK1   BANK2   BANK3   BANK4   BANK5   BANK6   BANK7   BANK8   BANK9  BANK10  BANK11  BANK12  BANK13  BANK14  BANK15
      Params:         4       0       0       0       0       0       0       0       0       0       0       0       0       0       0       0       0
      Locals:         1       0       0       0       0       0       0       0       0       0       0       0       0       0       0       0       0
      Temps:          0       0       0       0       0       0       0       0       0       0       0       0       0       0       0       0       0
      Totals:         5       0       0       0       0       0       0       0       0       0       0       0       0       0       0       0       0
Total ram usage:        5 bytes
 Hardware stack levels used:    1
 Hardware stack levels required when called:    1
 This function calls:
		Nothing
 This function is called by:
		_RF24N_begin_d
		_RF24N_write_
 This function uses a non-reentrant model


 *************** function _RF24N__write *****************
 Defined at:
		line 925 in file "../../../RF24Network_cg/RF24Network_cg.c"
 Parameters:    Size  Location     Type
  header          2   68[COMRAM] PTR struct .
		 -> RF24E_network_send@headerOut(8), RF24M_DHCP@header(8), RF24M_requestAddress@header(8), RF24M_releaseAddress@header(8), 
		 -> RF24M_getNodeID@header(8), RF24M_getAddress@header(8), RF24M_checkConnection@header(8), RF24M_write_n@header(8), 
		 -> rn.frame_buffer(32), rn(370), 
  message         3   70[COMRAM] PTR const void 
		 -> RF24M_DHCP@newAddress(2), RF24M_getNodeID@address(2), RF24M_getAddress@nodeID(1), RF24M_update@returnAddr_3829(2), 
		 -> RF24M_update@returnAddr(2), rn.frame_buffer(32), rn.frag_queue_message_buffer(144), rn(370), 
		 -> ROM(65535), NULL(0), 
  len             2   73[COMRAM] unsigned int 
  writeDirect     2   75[COMRAM] unsigned int 
 Auto vars:     Size  Location     Type
  sendType        1   79[COMRAM] unsigned char 
 Return value:  Size  Location     Type
                  1    wreg      unsigned char 
 Registers used:
		wreg, fsr0l, fsr0h, fsr1l, fsr1h, fsr2l, fsr2h, status,2, status,0, pclat, btemp, btemp+1, btemp+2, btemp+3, btemp+4, btemp+5, btemp+6, btemp+7, btemp+8, btemp+9, btemp+10, btemp+11, tosl, structret, tblptrl, tblptrh, tblptru, prodl, prodh, bsr, cstack
 Tracked objects:
		On entry : 
		On exit  : 
		Unchanged: 
 Data sizes:     COMRAM   BANK0   BANK1   BANK2   BANK3   BANK4   BANK5   BANK6   BANK7   BANK8   BANK9  BANK10  BANK11  BANK12  BANK13  BANK14  BANK15
      Params:         9       0       0       0       0       0       0       0       0       0       0       0       0       0       0       0       0
      Locals:         1       0       0       0       0       0       0       0       0       0       0       0       0       0       0       0       0
      Temps:          2       0       0       0       0       0       0       0       0       0       0       0       0       0       0       0       0
      Totals:        12       0       0       0       0       0       0       0       0       0       0       0       0       0       0       0       0
Total ram usage:       12 bytes
 Hardware stack levels used:    1
 Hardware stack levels required when called:   10
 This function calls:
		_RF24N_write
		_memcpy
 This function is called by:
		_RF24N_write_
 This function uses a non-reentrant model


 *************** function _RF24NH_init *****************
 Defined at:
		line 47 in file "../../../RF24Network_cg/RF24Network_cg.c"
 Parameters:    Size  Location     Type
  rnh             2    2[COMRAM] PTR struct .
		 -> RF24E_network_send@headerOut(8), RF24M_requestAddress@header(8), RF24M_releaseAddress@header(8), RF24M_getNodeID@header(8), 
		 -> RF24M_getAddress@header(8), RF24M_checkConnection@header(8), RF24M_write_n@header(8), 
  _to             2    4[COMRAM] unsigned int 
  _type           1    6[COMRAM] unsigned char 
 Auto vars:     Size  Location     Type
		None
 Return value:  Size  Location     Type
                  1    wreg      void 
 Registers used:
		wreg, fsr2l, fsr2h, status,2, status,0
 Tracked objects:
		On entry : 
		On exit  : 
		Unchanged: 
 Data sizes:     COMRAM   BANK0   BANK1   BANK2   BANK3   BANK4   BANK5   BANK6   BANK7   BANK8   BANK9  BANK10  BANK11  BANK12  BANK13  BANK14  BANK15
      Params:         5       0       0       0       0       0       0       0       0       0       0       0       0       0       0       0       0
      Locals:         0       0       0       0       0       0       0       0       0       0       0       0       0       0       0       0       0
      Temps:          0       0       0       0       0       0       0       0       0       0       0       0       0       0       0       0       0
      Totals:         5       0       0       0       0       0       0       0       0       0       0       0       0       0       0       0       0
Total ram usage:        5 bytes
 Hardware stack levels used:    1
 Hardware stack levels required when called:    1
 This function calls:
		Nothing
 This function is called by:
		_RF24M_checkConnection
		_RF24M_getAddress
		_RF24M_getNodeID
		_RF24M_requestAddress
		_RF24E_network_send
		_RF24M_write_n
		_RF24M_releaseAddress
 This function uses a non-reentrant model


 *************** function _RF24EC__available *****************
 Defined at:
		line 454 in file "../../../RF24Ethernet_cg/RF24Client_cg.c"
 Parameters:    Size  Location     Type
  u               2    2[COMRAM] PTR struct .
		 -> ?_sprintf(2), ?_printf(2), all_data(234), RF24M_getAddress@nodeID(1), 
		 -> NULL(0), stats_page@buffer(45), main_page@bf(103), STR_4(10), 
		 -> STR_3(15), STR_2(4), STR_1(3), 
 Auto vars:     Size  Location     Type
		None
 Return value:  Size  Location     Type
                  2    2[COMRAM] int 
 Registers used:
		wreg, fsr0l, fsr0h, status,2, status,0, tblptrl, tblptrh, tblptru
 Tracked objects:
		On entry : 
		On exit  : 
		Unchanged: 
 Data sizes:     COMRAM   BANK0   BANK1   BANK2   BANK3   BANK4   BANK5   BANK6   BANK7   BANK8   BANK9  BANK10  BANK11  BANK12  BANK13  BANK14  BANK15
      Params:         2       0       0       0       0       0       0       0       0       0       0       0       0       0       0       0       0
      Locals:         0       0       0       0       0       0       0       0       0       0       0       0       0       0       0       0       0
      Temps:          2       0       0       0       0       0       0       0       0       0       0       0       0       0       0       0       0
      Totals:         4       0       0       0       0       0       0       0       0       0       0       0       0       0       0       0       0
Total ram usage:        4 bytes
 Hardware stack levels used:    1
 Hardware stack levels required when called:    1
 This function calls:
		Nothing
 This function is called by:
		_RF24EC_available
 This function uses a non-reentrant model


 *************** function _RF24_write_payload *****************
 Defined at:
		line 224 in file "../../../RF24_cg/RF24_cg.c"
 Parameters:    Size  Location     Type
  buf             2   16[COMRAM] PTR const void 
		 -> rn.frame_buffer(32), rn(370), 
  data_len        1   18[COMRAM] unsigned char 
  writeType       1   19[COMRAM] const unsigned char 
 Auto vars:     Size  Location     Type
  current         2   32[COMRAM] PTR const unsigned char 
		 -> rn.frame_buffer(32), rn(370), 
  blank_len       1   31[COMRAM] unsigned char 
  status          1   30[COMRAM] unsigned char 
 Return value:  Size  Location     Type
                  1    wreg      unsigned char 
 Registers used:
		wreg, fsr2l, fsr2h, status,2, status,0, cstack
 Tracked objects:
		On entry : 
		On exit  : 
		Unchanged: 
 Data sizes:     COMRAM   BANK0   BANK1   BANK2   BANK3   BANK4   BANK5   BANK6   BANK7   BANK8   BANK9  BANK10  BANK11  BANK12  BANK13  BANK14  BANK15
      Params:         4       0       0       0       0       0       0       0       0       0       0       0       0       0       0       0       0
      Locals:        16       0       0       0       0       0       0       0       0       0       0       0       0       0       0       0       0
      Temps:          2       0       0       0       0       0       0       0       0       0       0       0       0       0       0       0       0
      Totals:        22       0       0       0       0       0       0       0       0       0       0       0       0       0       0       0       0
Total ram usage:       22 bytes
 Hardware stack levels used:    1
 Hardware stack levels required when called:    4
 This function calls:
		_RF24_beginTransaction
		_RF24_endTransaction
		_SPI_transfer
 This function is called by:
		_RF24_startFastWrite
		_RF24_startWrite
 This function uses a non-reentrant model


 *************** function _RF24_read_payload *****************
 Defined at:
		line 272 in file "../../../RF24_cg/RF24_cg.c"
 Parameters:    Size  Location     Type
  buf             2   16[COMRAM] PTR void 
		 -> rn(370), 
  data_len        1   18[COMRAM] unsigned char 
 Auto vars:     Size  Location     Type
  current         2   29[COMRAM] PTR unsigned char 
		 -> rn(370), 
  blank_len       1   28[COMRAM] unsigned char 
  status          1   27[COMRAM] unsigned char 
 Return value:  Size  Location     Type
                  1    wreg      unsigned char 
 Registers used:
		wreg, fsr2l, fsr2h, status,2, status,0, cstack
 Tracked objects:
		On entry : 
		On exit  : 
		Unchanged: 
 Data sizes:     COMRAM   BANK0   BANK1   BANK2   BANK3   BANK4   BANK5   BANK6   BANK7   BANK8   BANK9  BANK10  BANK11  BANK12  BANK13  BANK14  BANK15
      Params:         3       0       0       0       0       0       0       0       0       0       0       0       0       0       0       0       0
      Locals:        12       0       0       0       0       0       0       0       0       0       0       0       0       0       0       0       0
      Temps:          2       0       0       0       0       0       0       0       0       0       0       0       0       0       0       0       0
      Totals:        17       0       0       0       0       0       0       0       0       0       0       0       0       0       0       0       0
Total ram usage:       17 bytes
 Hardware stack levels used:    1
 Hardware stack levels required when called:    4
 This function calls:
		_RF24_beginTransaction
		_RF24_endTransaction
		_SPI_transfer
 This function is called by:
		_RF24_read
 This function uses a non-reentrant model


 *************** function _RF24_spiTrans *****************
 Defined at:
		line 327 in file "../../../RF24_cg/RF24_cg.c"
 Parameters:    Size  Location     Type
  cmd             1    wreg     unsigned char 
 Auto vars:     Size  Location     Type
  cmd             1   18[COMRAM] unsigned char 
  status          1   19[COMRAM] unsigned char 
 Return value:  Size  Location     Type
                  1    wreg      unsigned char 
 Registers used:
		wreg, status,2, status,0, cstack
 Tracked objects:
		On entry : 
		On exit  : 
		Unchanged: 
 Data sizes:     COMRAM   BANK0   BANK1   BANK2   BANK3   BANK4   BANK5   BANK6   BANK7   BANK8   BANK9  BANK10  BANK11  BANK12  BANK13  BANK14  BANK15
      Params:         0       0       0       0       0       0       0       0       0       0       0       0       0       0       0       0       0
      Locals:         4       0       0       0       0       0       0       0       0       0       0       0       0       0       0       0       0
      Temps:          0       0       0       0       0       0       0       0       0       0       0       0       0       0       0       0       0
      Totals:         4       0       0       0       0       0       0       0       0       0       0       0       0       0       0       0       0
Total ram usage:        4 bytes
 Hardware stack levels used:    1
 Hardware stack levels required when called:    4
 This function calls:
		_RF24_beginTransaction
		_RF24_endTransaction
		_SPI_transfer
 This function is called by:
		_RF24_flush_rx
		_RF24_flush_tx
		_RF24_get_status
		_RF24_reUseTX
 This function uses a non-reentrant model


 *************** function _RF24_get_status *****************
 Defined at:
		line 355 in file "../../../RF24_cg/RF24_cg.c"
 Parameters:    Size  Location     Type
		None
 Auto vars:     Size  Location     Type
		None
 Return value:  Size  Location     Type
                  1    wreg      unsigned char 
 Registers used:
		wreg, status,2, status,0, cstack
 Tracked objects:
		On entry : 
		On exit  : 
		Unchanged: 
 Data sizes:     COMRAM   BANK0   BANK1   BANK2   BANK3   BANK4   BANK5   BANK6   BANK7   BANK8   BANK9  BANK10  BANK11  BANK12  BANK13  BANK14  BANK15
      Params:         0       0       0       0       0       0       0       0       0       0       0       0       0       0       0       0       0
      Locals:         0       0       0       0       0       0       0       0       0       0       0       0       0       0       0       0       0
      Temps:          0       0       0       0       0       0       0       0       0       0       0       0       0       0       0       0       0
      Totals:         0       0       0       0       0       0       0       0       0       0       0       0       0       0       0       0       0
Total ram usage:        0 bytes
 Hardware stack levels used:    1
 Hardware stack levels required when called:    5
 This function calls:
		_RF24_spiTrans
 This function is called by:
		_RF24_writeFast_m
		_RF24_txStandBy_t
		_RF24_available_p
		_RF24_write_m
		_RF24_writeBlocking
		_RF24_txStandBy
 This function uses a non-reentrant model


 *************** function _RF24_closeReadingPipe *****************
 Defined at:
		line 1259 in file "../../../RF24_cg/RF24_cg.c"
 Parameters:    Size  Location     Type
  pipe            1    wreg     unsigned char 
 Auto vars:     Size  Location     Type
  pipe            1   29[COMRAM] unsigned char 
 Return value:  Size  Location     Type
                  1    wreg      void 
 Registers used:
		wreg, status,2, status,0, tblptrl, tblptrh, tblptru, prodl, prodh, cstack
 Tracked objects:
		On entry : 
		On exit  : 
		Unchanged: 
 Data sizes:     COMRAM   BANK0   BANK1   BANK2   BANK3   BANK4   BANK5   BANK6   BANK7   BANK8   BANK9  BANK10  BANK11  BANK12  BANK13  BANK14  BANK15
      Params:         0       0       0       0       0       0       0       0       0       0       0       0       0       0       0       0       0
      Locals:         2       0       0       0       0       0       0       0       0       0       0       0       0       0       0       0       0
      Temps:          3       0       0       0       0       0       0       0       0       0       0       0       0       0       0       0       0
      Totals:         5       0       0       0       0       0       0       0       0       0       0       0       0       0       0       0       0
Total ram usage:        5 bytes
 Hardware stack levels used:    1
 Hardware stack levels required when called:    5
 This function calls:
		_RF24_read_register_d
		_RF24_write_register_d
 This function is called by:
		_RF24_startListening
 This function uses a non-reentrant model


 *************** function _RF24_startFastWrite *****************
 Defined at:
		line 954 in file "../../../RF24_cg/RF24_cg.c"
 Parameters:    Size  Location     Type
  buf             2   38[COMRAM] PTR const void 
		 -> rn.frame_buffer(32), rn(370), 
  len             1   40[COMRAM] unsigned char 
  multicast       1   41[COMRAM] const unsigned char 
  startTx         1   42[COMRAM] unsigned char 
 Auto vars:     Size  Location     Type
		None
 Return value:  Size  Location     Type
                  1    wreg      void 
 Registers used:
		wreg, fsr2l, fsr2h, status,2, status,0, cstack
 Tracked objects:
		On entry : 
		On exit  : 
		Unchanged: 
 Data sizes:     COMRAM   BANK0   BANK1   BANK2   BANK3   BANK4   BANK5   BANK6   BANK7   BANK8   BANK9  BANK10  BANK11  BANK12  BANK13  BANK14  BANK15
      Params:         5       0       0       0       0       0       0       0       0       0       0       0       0       0       0       0       0
      Locals:         4       0       0       0       0       0       0       0       0       0       0       0       0       0       0       0       0
      Temps:          0       0       0       0       0       0       0       0       0       0       0       0       0       0       0       0       0
      Totals:         9       0       0       0       0       0       0       0       0       0       0       0       0       0       0       0       0
Total ram usage:        9 bytes
 Hardware stack levels used:    1
 Hardware stack levels required when called:    5
 This function calls:
		_RF24_ce_d
		_RF24_write_payload
 This function is called by:
		_RF24_writeFast_m
		_RF24_write_m
		_RF24_writeBlocking
 This function uses a non-reentrant model


 *************** function _RF24_writeFast_m *****************
 Defined at:
		line 909 in file "../../../RF24_cg/RF24_cg.c"
 Parameters:    Size  Location     Type
  buf             2   47[COMRAM] PTR const void 
		 -> rn.frame_buffer(32), rn(370), 
  len             1   49[COMRAM] unsigned char 
  multicast       1   50[COMRAM] const unsigned char 
 Auto vars:     Size  Location     Type
		None
 Return value:  Size  Location     Type
                  1    wreg      unsigned char 
 Registers used:
		wreg, fsr2l, fsr2h, status,2, status,0, cstack
 Tracked objects:
		On entry : 
		On exit  : 
		Unchanged: 
 Data sizes:     COMRAM   BANK0   BANK1   BANK2   BANK3   BANK4   BANK5   BANK6   BANK7   BANK8   BANK9  BANK10  BANK11  BANK12  BANK13  BANK14  BANK15
      Params:         4       0       0       0       0       0       0       0       0       0       0       0       0       0       0       0       0
      Locals:         0       0       0       0       0       0       0       0       0       0       0       0       0       0       0       0       0
      Temps:          1       0       0       0       0       0       0       0       0       0       0       0       0       0       0       0       0
      Totals:         5       0       0       0       0       0       0       0       0       0       0       0       0       0       0       0       0
Total ram usage:        5 bytes
 Hardware stack levels used:    1
 Hardware stack levels required when called:    6
 This function calls:
		_RF24_get_status
		_RF24_startFastWrite
		_RF24_write_register_d
 This function is called by:
		_RF24N_write_to_pipe
		_RF24_writeFast
 This function uses a non-reentrant model


 *************** function _RF24_getDynamicPayloadSize *****************
 Defined at:
		line 1067 in file "../../../RF24_cg/RF24_cg.c"
 Parameters:    Size  Location     Type
		None
 Auto vars:     Size  Location     Type
  result          1   21[COMRAM] unsigned char 
 Return value:  Size  Location     Type
                  1    wreg      unsigned char 
 Registers used:
		wreg, status,2, status,0, cstack
 Tracked objects:
		On entry : 
		On exit  : 
		Unchanged: 
 Data sizes:     COMRAM   BANK0   BANK1   BANK2   BANK3   BANK4   BANK5   BANK6   BANK7   BANK8   BANK9  BANK10  BANK11  BANK12  BANK13  BANK14  BANK15
      Params:         0       0       0       0       0       0       0       0       0       0       0       0       0       0       0       0       0
      Locals:         2       0       0       0       0       0       0       0       0       0       0       0       0       0       0       0       0
      Temps:          0       0       0       0       0       0       0       0       0       0       0       0       0       0       0       0       0
      Totals:         2       0       0       0       0       0       0       0       0       0       0       0       0       0       0       0       0
Total ram usage:        2 bytes
 Hardware stack levels used:    1
 Hardware stack levels required when called:    6
 This function calls:
		_RF24_beginTransaction
		_RF24_endTransaction
		_RF24_flush_rx
		_SPI_transfer
		_delay
 This function is called by:
		_RF24N_update
 This function uses a non-reentrant model


 *************** function _RF24_flush_rx *****************
 Defined at:
		line 341 in file "../../../RF24_cg/RF24_cg.c"
 Parameters:    Size  Location     Type
		None
 Auto vars:     Size  Location     Type
		None
 Return value:  Size  Location     Type
                  1    wreg      unsigned char 
 Registers used:
		wreg, status,2, status,0, cstack
 Tracked objects:
		On entry : 
		On exit  : 
		Unchanged: 
 Data sizes:     COMRAM   BANK0   BANK1   BANK2   BANK3   BANK4   BANK5   BANK6   BANK7   BANK8   BANK9  BANK10  BANK11  BANK12  BANK13  BANK14  BANK15
      Params:         0       0       0       0       0       0       0       0       0       0       0       0       0       0       0       0       0
      Locals:         0       0       0       0       0       0       0       0       0       0       0       0       0       0       0       0       0
      Temps:          0       0       0       0       0       0       0       0       0       0       0       0       0       0       0       0       0
      Totals:         0       0       0       0       0       0       0       0       0       0       0       0       0       0       0       0       0
Total ram usage:        0 bytes
 Hardware stack levels used:    1
 Hardware stack levels required when called:    5
 This function calls:
		_RF24_spiTrans
 This function is called by:
		_RF24_begin
		_RF24_getDynamicPayloadSize
 This function uses a non-reentrant model


 *************** function _RF24_read *****************
 Defined at:
		line 1118 in file "../../../RF24_cg/RF24_cg.c"
 Parameters:    Size  Location     Type
  buf             2   33[COMRAM] PTR void 
		 -> rn(370), 
  len             1   35[COMRAM] unsigned char 
 Auto vars:     Size  Location     Type
		None
 Return value:  Size  Location     Type
                  1    wreg      void 
 Registers used:
		wreg, fsr2l, fsr2h, status,2, status,0, cstack
 Tracked objects:
		On entry : 
		On exit  : 
		Unchanged: 
 Data sizes:     COMRAM   BANK0   BANK1   BANK2   BANK3   BANK4   BANK5   BANK6   BANK7   BANK8   BANK9  BANK10  BANK11  BANK12  BANK13  BANK14  BANK15
      Params:         3       0       0       0       0       0       0       0       0       0       0       0       0       0       0       0       0
      Locals:         0       0       0       0       0       0       0       0       0       0       0       0       0       0       0       0       0
      Temps:          0       0       0       0       0       0       0       0       0       0       0       0       0       0       0       0       0
      Totals:         3       0       0       0       0       0       0       0       0       0       0       0       0       0       0       0       0
Total ram usage:        3 bytes
 Hardware stack levels used:    1
 Hardware stack levels required when called:    5
 This function calls:
		_RF24_read_payload
		_RF24_write_register_d
 This function is called by:
		_RF24N_update
 This function uses a non-reentrant model


 *************** function _RF24_openWritingPipe_d *****************
 Defined at:
		line 1144 in file "../../../RF24_cg/RF24_cg.c"
 Parameters:    Size  Location     Type
  value_          2   25[COMRAM] PTR const unsigned char 
		 -> RF24N_write_to_pipe@out_pipe(5), 
 Auto vars:     Size  Location     Type
  value           5   35[COMRAM] unsigned char [5]
  i               1   40[COMRAM] unsigned char 
 Return value:  Size  Location     Type
                  1    wreg      void 
 Registers used:
		wreg, fsr0l, fsr0h, fsr2l, fsr2h, status,2, status,0, prodl, prodh, cstack
 Tracked objects:
		On entry : 
		On exit  : 
		Unchanged: 
 Data sizes:     COMRAM   BANK0   BANK1   BANK2   BANK3   BANK4   BANK5   BANK6   BANK7   BANK8   BANK9  BANK10  BANK11  BANK12  BANK13  BANK14  BANK15
      Params:         2       0       0       0       0       0       0       0       0       0       0       0       0       0       0       0       0
      Locals:        12       0       0       0       0       0       0       0       0       0       0       0       0       0       0       0       0
      Temps:          2       0       0       0       0       0       0       0       0       0       0       0       0       0       0       0       0
      Totals:        16       0       0       0       0       0       0       0       0       0       0       0       0       0       0       0       0
Total ram usage:       16 bytes
 Hardware stack levels used:    1
 Hardware stack levels required when called:    5
 This function calls:
		_RF24_write_register_c_d
		_RF24_write_register_d
 This function is called by:
		_RF24N_write_to_pipe
 This function uses a non-reentrant model


 *************** function _RF24N_available *****************
 Defined at:
		line 679 in file "../../../RF24Network_cg/RF24Network_cg.c"
 Parameters:    Size  Location     Type
		None
 Auto vars:     Size  Location     Type
		None
 Return value:  Size  Location     Type
                  1    wreg      unsigned char 
 Registers used:
		wreg, fsr2l, fsr2h, status,2, status,0
 Tracked objects:
		On entry : 
		On exit  : 
		Unchanged: 
 Data sizes:     COMRAM   BANK0   BANK1   BANK2   BANK3   BANK4   BANK5   BANK6   BANK7   BANK8   BANK9  BANK10  BANK11  BANK12  BANK13  BANK14  BANK15
      Params:         0       0       0       0       0       0       0       0       0       0       0       0       0       0       0       0       0
      Locals:         0       0       0       0       0       0       0       0       0       0       0       0       0       0       0       0       0
      Temps:          2       0       0       0       0       0       0       0       0       0       0       0       0       0       0       0       0
      Totals:         2       0       0       0       0       0       0       0       0       0       0       0       0       0       0       0       0
Total ram usage:        2 bytes
 Hardware stack levels used:    1
 Hardware stack levels required when called:    1
 This function calls:
		Nothing
 This function is called by:
		_RF24N_update
		_RF24N_peek
		_RF24N_read
 This function uses a non-reentrant model


 *************** function _RF24N_enqueue *****************
 Defined at:
		line 527 in file "../../../RF24Network_cg/RF24Network_cg.c"
 Parameters:    Size  Location     Type
  header          2   27[COMRAM] PTR struct .
		 -> rn.frame_buffer(32), rn(370), 
 Auto vars:     Size  Location     Type
  padding         1   44[COMRAM] unsigned char 
  padding         1   45[COMRAM] unsigned char 
  message_size    2   48[COMRAM] unsigned int 
  result          1   47[COMRAM] unsigned char 
  isFragment      1   43[COMRAM] unsigned char 
 Return value:  Size  Location     Type
                  1    wreg      unsigned char 
 Registers used:
		wreg, fsr0l, fsr0h, fsr2l, fsr2h, status,2, status,0, tblptrl, tblptrh, tblptru, prodl, prodh, cstack
 Tracked objects:
		On entry : 
		On exit  : 
		Unchanged: 
 Data sizes:     COMRAM   BANK0   BANK1   BANK2   BANK3   BANK4   BANK5   BANK6   BANK7   BANK8   BANK9  BANK10  BANK11  BANK12  BANK13  BANK14  BANK15
      Params:         2       0       0       0       0       0       0       0       0       0       0       0       0       0       0       0       0
      Locals:        14       0       0       0       0       0       0       0       0       0       0       0       0       0       0       0       0
      Temps:          7       0       0       0       0       0       0       0       0       0       0       0       0       0       0       0       0
      Totals:        23       0       0       0       0       0       0       0       0       0       0       0       0       0       0       0       0
Total ram usage:       23 bytes
 Hardware stack levels used:    1
 Hardware stack levels required when called:    7
 This function calls:
		_RF24_stopListening
		___lwdiv
		_memcpy
 This function is called by:
		_RF24N_update
 This function uses a non-reentrant model


 *************** function _memcpy *****************
 Defined at:
		line 11 in file "/opt/microchip/xc8/v1.38/sources/common/memcpy.c"
 Parameters:    Size  Location     Type
  d1              2    4[COMRAM] PTR void 
		 -> main_page@bf.myDataIn(103), stats_page@buffer.myDataIn(103), RF24M_getAddress@nodeID.myDataIn(103), all_data.myDataIn(103), 
		 -> ?_printf.myDataIn(103), ?_sprintf.myDataIn(103), main_page@bf.myData(103), stats_page@buffer.myData(103), 
		 -> RF24M_getAddress@nodeID.myData(103), all_data.myData(103), ?_printf.myData(103), ?_sprintf.myData(103), 
		 -> rn.ethhdr.dest(6), rn.ethhdr.dest(6), rn.ethhdr.src(6), rn.dhwaddr(6), 
		 -> rn.shwaddr(6), rn.ethhdr.src(6), arp_table.ethaddr(6), RF24EC_read@c(1), 
		 -> all_data(234), RF24M_DHCP@header(8), RF24M_requestAddress@contactNode(8), RF24M_requestAddress@newAddress(2), 
		 -> RF24M_getNodeID@ID(2), RF24M_getAddress@address(2), RF24N_read@bufsize(2), RF24N_peek@msg_size(2), 
		 -> rn.frame_buffer(32), rn.frag_queue_message_buffer(144), rn.frame_queue(154), rn(370), 
		 -> rf(22), arp_table(88), entries(88), NULL(0), 
		 -> STR_4(10), STR_3(15), STR_2(4), STR_1(3), 
  s1              2    6[COMRAM] PTR const void 
		 -> main_page@bf.myDataIn(103), stats_page@buffer.myDataIn(103), RF24M_getAddress@nodeID.myDataIn(103), all_data.myDataIn(103), 
		 -> ?_printf.myDataIn(103), ?_sprintf.myDataIn(103), main_page@bf.myData(103), stats_page@buffer.myData(103), 
		 -> RF24M_getAddress@nodeID.myData(103), all_data.myData(103), ?_printf.myData(103), ?_sprintf.myData(103), 
		 -> rn.header(8), rn.frame_queue.header(8), rn.shwaddr.addr(6), rn.dhwaddr.addr(6), 
		 -> rn.addr(6), arp_table.ethaddr.addr(6), ?_sprintf(2), ?_printf(2), 
		 -> RF24ES_write_b@c(1), RF24E_network_send@headerOut(8), all_data(234), RF24EC_write_b@c(1), 
		 -> RF24M_DHCP@newAddress(2), RF24M_DHCP@header(8), RF24M_requestAddress@header(8), RF24M_releaseAddress@header(8), 
		 -> RF24M_getNodeID@header(8), RF24M_getNodeID@address(2), RF24M_getAddress@header(8), RF24M_getAddress@nodeID(1), 
		 -> RF24M_checkConnection@header(8), RF24M_write_n@header(8), RF24M_update@returnAddr_3829(2), RF24M_update@returnAddr(2), 
		 -> RF24N_getFrame_buffer(2), RF24N_enqueue@message_size(2), rn.frame_buffer(32), rn.frag_queue_message_buffer(144), 
		 -> rn.frag_queue(13), rn.frame_queue(154), rn(370), RF24_openReadingPipe_d@address(5), 
		 -> uip_ethaddr.addr(6), uip_ethaddr(6), broadcast_ethaddr(6), ROM(65535), 
		 -> NULL(0), stats_page@buffer(45), main_page@bf(103), STR_4(10), 
		 -> STR_3(15), STR_2(4), STR_1(3), sendPage@c(1), 
  n               2    8[COMRAM] unsigned int 
 Auto vars:     Size  Location     Type
  s               2   13[COMRAM] PTR const unsigned char 
		 -> main_page@bf.myDataIn(103), stats_page@buffer.myDataIn(103), RF24M_getAddress@nodeID.myDataIn(103), all_data.myDataIn(103), 
		 -> ?_printf.myDataIn(103), ?_sprintf.myDataIn(103), main_page@bf.myData(103), stats_page@buffer.myData(103), 
		 -> RF24M_getAddress@nodeID.myData(103), all_data.myData(103), ?_printf.myData(103), ?_sprintf.myData(103), 
		 -> rn.header(8), rn.frame_queue.header(8), rn.shwaddr.addr(6), rn.dhwaddr.addr(6), 
		 -> rn.addr(6), arp_table.ethaddr.addr(6), ?_sprintf(2), ?_printf(2), 
		 -> RF24ES_write_b@c(1), RF24E_network_send@headerOut(8), all_data(234), RF24EC_write_b@c(1), 
		 -> RF24M_DHCP@newAddress(2), RF24M_DHCP@header(8), RF24M_requestAddress@header(8), RF24M_releaseAddress@header(8), 
		 -> RF24M_getNodeID@header(8), RF24M_getNodeID@address(2), RF24M_getAddress@header(8), RF24M_getAddress@nodeID(1), 
		 -> RF24M_checkConnection@header(8), RF24M_write_n@header(8), RF24M_update@returnAddr_3829(2), RF24M_update@returnAddr(2), 
		 -> RF24N_getFrame_buffer(2), RF24N_enqueue@message_size(2), rn.frame_buffer(32), rn.frag_queue_message_buffer(144), 
		 -> rn.frag_queue(13), rn.frame_queue(154), rn(370), RF24_openReadingPipe_d@address(5), 
		 -> uip_ethaddr.addr(6), uip_ethaddr(6), broadcast_ethaddr(6), ROM(65535), 
		 -> NULL(0), stats_page@buffer(45), main_page@bf(103), STR_4(10), 
		 -> STR_3(15), STR_2(4), STR_1(3), sendPage@c(1), 
  d               2   11[COMRAM] PTR unsigned char 
		 -> main_page@bf.myDataIn(103), stats_page@buffer.myDataIn(103), RF24M_getAddress@nodeID.myDataIn(103), all_data.myDataIn(103), 
		 -> ?_printf.myDataIn(103), ?_sprintf.myDataIn(103), main_page@bf.myData(103), stats_page@buffer.myData(103), 
		 -> RF24M_getAddress@nodeID.myData(103), all_data.myData(103), ?_printf.myData(103), ?_sprintf.myData(103), 
		 -> rn.ethhdr.dest(6), rn.ethhdr.dest(6), rn.ethhdr.src(6), rn.dhwaddr(6), 
		 -> rn.shwaddr(6), rn.ethhdr.src(6), arp_table.ethaddr(6), RF24EC_read@c(1), 
		 -> all_data(234), RF24M_DHCP@header(8), RF24M_requestAddress@contactNode(8), RF24M_requestAddress@newAddress(2), 
		 -> RF24M_getNodeID@ID(2), RF24M_getAddress@address(2), RF24N_read@bufsize(2), RF24N_peek@msg_size(2), 
		 -> rn.frame_buffer(32), rn.frag_queue_message_buffer(144), rn.frame_queue(154), rn(370), 
		 -> rf(22), arp_table(88), entries(88), NULL(0), 
		 -> STR_4(10), STR_3(15), STR_2(4), STR_1(3), 
 Return value:  Size  Location     Type
                  2    4[COMRAM] PTR void 
 Registers used:
		wreg, fsr0l, fsr0h, fsr2l, fsr2h, status,2, status,0, tblptrl, tblptrh, tblptru
 Tracked objects:
		On entry : 
		On exit  : 
		Unchanged: 
 Data sizes:     COMRAM   BANK0   BANK1   BANK2   BANK3   BANK4   BANK5   BANK6   BANK7   BANK8   BANK9  BANK10  BANK11  BANK12  BANK13  BANK14  BANK15
      Params:         6       0       0       0       0       0       0       0       0       0       0       0       0       0       0       0       0
      Locals:         4       0       0       0       0       0       0       0       0       0       0       0       0       0       0       0       0
      Temps:          1       0       0       0       0       0       0       0       0       0       0       0       0       0       0       0       0
      Totals:        11       0       0       0       0       0       0       0       0       0       0       0       0       0       0       0       0
Total ram usage:       11 bytes
 Hardware stack levels used:    1
 Hardware stack levels required when called:    1
 This function calls:
		Nothing
 This function is called by:
		_uip_send
		_RF24_openReadingPipe_d
		_RF24N_enqueue
		_RF24N__write
		_RF24M_getAddress
		_RF24M_getNodeID
		_RF24M_requestAddress
		_RF24EC__write
		_serialip_appcall
		_RF24EC_read_b
		_buf_bufdata
		_time_exceeded
		_uip_neighbor_add
		_uip_split_output
		_uip_arp_update
		_uip_arp_arpin
		_uip_arp_out
		_RF24_openReadingPipe
		_RF24N_peek
		_RF24N_read
		_RF24M_DHCP
 This function uses a non-reentrant model


 *************** function ___lwdiv *****************
 Defined at:
		line 8 in file "/opt/microchip/xc8/v1.38/sources/common/lwdiv.c"
 Parameters:    Size  Location     Type
  dividend        2    2[COMRAM] unsigned int 
  divisor         2    4[COMRAM] unsigned int 
 Auto vars:     Size  Location     Type
  quotient        2    7[COMRAM] unsigned int 
  counter         1    6[COMRAM] unsigned char 
 Return value:  Size  Location     Type
                  2    2[COMRAM] unsigned int 
 Registers used:
		wreg, status,2, status,0
 Tracked objects:
		On entry : 
		On exit  : 
		Unchanged: 
 Data sizes:     COMRAM   BANK0   BANK1   BANK2   BANK3   BANK4   BANK5   BANK6   BANK7   BANK8   BANK9  BANK10  BANK11  BANK12  BANK13  BANK14  BANK15
      Params:         4       0       0       0       0       0       0       0       0       0       0       0       0       0       0       0       0
      Locals:         3       0       0       0       0       0       0       0       0       0       0       0       0       0       0       0       0
      Temps:          0       0       0       0       0       0       0       0       0       0       0       0       0       0       0       0       0
      Totals:         7       0       0       0       0       0       0       0       0       0       0       0       0       0       0       0       0
Total ram usage:        7 bytes
 Hardware stack levels used:    1
 Hardware stack levels required when called:    1
 This function calls:
		Nothing
 This function is called by:
		_RF24N_enqueue
		_RF24N_write_
 This function uses a non-reentrant model


 *************** function _RF24N_logicalToPhysicalAddress *****************
 Defined at:
		line 1093 in file "../../../RF24Network_cg/RF24Network_cg.c"
 Parameters:    Size  Location     Type
  conversionIn    2   20[COMRAM] PTR struct .
		 -> RF24N_write@conversion(4), 
 Auto vars:     Size  Location     Type
  to_node         2   39[COMRAM] PTR unsigned int 
		 -> conversion.send_node(2), RF24N_write@conversion(4), 
  directTo        2   36[COMRAM] PTR unsigned char 
		 -> conversion.send_pipe(1), RF24N_write@conversion(4), 
  pre_conversi    2   34[COMRAM] unsigned int 
  multicast       2   32[COMRAM] PTR unsigned char 
		 -> conversion.multicast(1), RF24N_write@conversion(4), 
  pre_conversi    1   38[COMRAM] unsigned char 
 Return value:  Size  Location     Type
                  1    wreg      unsigned char 
 Registers used:
		wreg, fsr0l, fsr0h, fsr2l, fsr2h, status,2, status,0, cstack
 Tracked objects:
		On entry : 
		On exit  : 
		Unchanged: 
 Data sizes:     COMRAM   BANK0   BANK1   BANK2   BANK3   BANK4   BANK5   BANK6   BANK7   BANK8   BANK9  BANK10  BANK11  BANK12  BANK13  BANK14  BANK15
      Params:         2       0       0       0       0       0       0       0       0       0       0       0       0       0       0       0       0
      Locals:        18       0       0       0       0       0       0       0       0       0       0       0       0       0       0       0       0
      Temps:          1       0       0       0       0       0       0       0       0       0       0       0       0       0       0       0       0
      Totals:        21       0       0       0       0       0       0       0       0       0       0       0       0       0       0       0       0
Total ram usage:       21 bytes
 Hardware stack levels used:    1
 Hardware stack levels required when called:    3
 This function calls:
		_RF24N_direct_child_route_to
		_RF24N_is_descendant
		_RF24N_is_direct_child
 This function is called by:
		_RF24N_write
 This function uses a non-reentrant model


 *************** function _RF24N_is_direct_child *****************
 Defined at:
		line 1196 in file "../../../RF24Network_cg/RF24Network_cg.c"
 Parameters:    Size  Location     Type
  node            2    8[COMRAM] unsigned int 
 Auto vars:     Size  Location     Type
  child_node_m    2   17[COMRAM] unsigned int 
  result          1   19[COMRAM] unsigned char 
 Return value:  Size  Location     Type
                  1    wreg      unsigned char 
 Registers used:
		wreg, fsr0l, fsr0h, fsr2l, fsr2h, status,2, status,0, cstack
 Tracked objects:
		On entry : 
		On exit  : 
		Unchanged: 
 Data sizes:     COMRAM   BANK0   BANK1   BANK2   BANK3   BANK4   BANK5   BANK6   BANK7   BANK8   BANK9  BANK10  BANK11  BANK12  BANK13  BANK14  BANK15
      Params:         2       0       0       0       0       0       0       0       0       0       0       0       0       0       0       0       0
      Locals:         6       0       0       0       0       0       0       0       0       0       0       0       0       0       0       0       0
      Temps:          4       0       0       0       0       0       0       0       0       0       0       0       0       0       0       0       0
      Totals:        12       0       0       0       0       0       0       0       0       0       0       0       0       0       0       0       0
Total ram usage:       12 bytes
 Hardware stack levels used:    1
 Hardware stack levels required when called:    2
 This function calls:
		_RF24N_is_descendant
 This function is called by:
		_RF24N_logicalToPhysicalAddress
 This function uses a non-reentrant model


 *************** function _RF24N_is_descendant *****************
 Defined at:
		line 1218 in file "../../../RF24Network_cg/RF24Network_cg.c"
 Parameters:    Size  Location     Type
  node            2    2[COMRAM] unsigned int 
 Auto vars:     Size  Location     Type
		None
 Return value:  Size  Location     Type
                  1    wreg      unsigned char 
 Registers used:
		wreg, fsr0l, fsr0h, fsr2l, fsr2h, status,2, status,0
 Tracked objects:
		On entry : 
		On exit  : 
		Unchanged: 
 Data sizes:     COMRAM   BANK0   BANK1   BANK2   BANK3   BANK4   BANK5   BANK6   BANK7   BANK8   BANK9  BANK10  BANK11  BANK12  BANK13  BANK14  BANK15
      Params:         2       0       0       0       0       0       0       0       0       0       0       0       0       0       0       0       0
      Locals:         0       0       0       0       0       0       0       0       0       0       0       0       0       0       0       0       0
      Temps:          4       0       0       0       0       0       0       0       0       0       0       0       0       0       0       0       0
      Totals:         6       0       0       0       0       0       0       0       0       0       0       0       0       0       0       0       0
Total ram usage:        6 bytes
 Hardware stack levels used:    1
 Hardware stack levels required when called:    1
 This function calls:
		Nothing
 This function is called by:
		_RF24N_logicalToPhysicalAddress
		_RF24N_is_direct_child
 This function uses a non-reentrant model


 *************** function _RF24N_direct_child_route_to *****************
 Defined at:
		line 1286 in file "../../../RF24Network_cg/RF24Network_cg.c"
 Parameters:    Size  Location     Type
  node            2    2[COMRAM] unsigned int 
 Auto vars:     Size  Location     Type
  child_mask      2    8[COMRAM] unsigned int 
 Return value:  Size  Location     Type
                  2    2[COMRAM] unsigned int 
 Registers used:
		wreg, fsr2l, fsr2h, status,2, status,0
 Tracked objects:
		On entry : 
		On exit  : 
		Unchanged: 
 Data sizes:     COMRAM   BANK0   BANK1   BANK2   BANK3   BANK4   BANK5   BANK6   BANK7   BANK8   BANK9  BANK10  BANK11  BANK12  BANK13  BANK14  BANK15
      Params:         2       0       0       0       0       0       0       0       0       0       0       0       0       0       0       0       0
      Locals:         4       0       0       0       0       0       0       0       0       0       0       0       0       0       0       0       0
      Temps:          2       0       0       0       0       0       0       0       0       0       0       0       0       0       0       0       0
      Totals:         8       0       0       0       0       0       0       0       0       0       0       0       0       0       0       0       0
Total ram usage:        8 bytes
 Hardware stack levels used:    1
 Hardware stack levels required when called:    1
 This function calls:
		Nothing
 This function is called by:
		_RF24N_logicalToPhysicalAddress
 This function uses a non-reentrant model


 *************** function _RF24N_write_to_pipe *****************
 Defined at:
		line 1143 in file "../../../RF24Network_cg/RF24Network_cg.c"
 Parameters:    Size  Location     Type
  node            2   52[COMRAM] unsigned int 
  pipe            1   54[COMRAM] unsigned char 
  multicast       1   55[COMRAM] unsigned char 
 Auto vars:     Size  Location     Type
  out_pipe        5   62[COMRAM] unsigned char [5]
  ok              1   67[COMRAM] unsigned char 
 Return value:  Size  Location     Type
                  1    wreg      unsigned char 
 Registers used:
		wreg, fsr0l, fsr0h, fsr2l, fsr2h, status,2, status,0, tblptrl, tblptrh, tblptru, prodl, prodh, cstack
 Tracked objects:
		On entry : 
		On exit  : 
		Unchanged: 
 Data sizes:     COMRAM   BANK0   BANK1   BANK2   BANK3   BANK4   BANK5   BANK6   BANK7   BANK8   BANK9  BANK10  BANK11  BANK12  BANK13  BANK14  BANK15
      Params:         4       0       0       0       0       0       0       0       0       0       0       0       0       0       0       0       0
      Locals:        12       0       0       0       0       0       0       0       0       0       0       0       0       0       0       0       0
      Temps:          0       0       0       0       0       0       0       0       0       0       0       0       0       0       0       0       0
      Totals:        16       0       0       0       0       0       0       0       0       0       0       0       0       0       0       0       0
Total ram usage:       16 bytes
 Hardware stack levels used:    1
 Hardware stack levels required when called:    8
 This function calls:
		_RF24N_pipe_address
		_RF24_openWritingPipe_d
		_RF24_setAutoAck_p
		_RF24_stopListening
		_RF24_txStandBy_t
		_RF24_writeFast_m
 This function is called by:
		_RF24N_write
 This function uses a non-reentrant model


 *************** function _RF24_write_register_c_d *****************
 Defined at:
		line 162 in file "../../../RF24_cg/RF24_cg.c"
 Parameters:    Size  Location     Type
  reg             1    wreg     unsigned char 
  buf             2   16[COMRAM] PTR const unsigned char 
		 -> RF24_openReadingPipe_d@address(5), RF24_openWritingPipe_d@value(5), rf.pipe0_reading_address(5), rf(22), 
  len             1   18[COMRAM] unsigned char 
 Auto vars:     Size  Location     Type
  reg             1   22[COMRAM] unsigned char 
  status          1   21[COMRAM] unsigned char 
 Return value:  Size  Location     Type
                  1    wreg      unsigned char 
 Registers used:
		wreg, fsr2l, fsr2h, status,2, status,0, cstack
 Tracked objects:
		On entry : 
		On exit  : 
		Unchanged: 
 Data sizes:     COMRAM   BANK0   BANK1   BANK2   BANK3   BANK4   BANK5   BANK6   BANK7   BANK8   BANK9  BANK10  BANK11  BANK12  BANK13  BANK14  BANK15
      Params:         3       0       0       0       0       0       0       0       0       0       0       0       0       0       0       0       0
      Locals:         4       0       0       0       0       0       0       0       0       0       0       0       0       0       0       0       0
      Temps:          0       0       0       0       0       0       0       0       0       0       0       0       0       0       0       0       0
      Totals:         7       0       0       0       0       0       0       0       0       0       0       0       0       0       0       0       0
Total ram usage:        7 bytes
 Hardware stack levels used:    1
 Hardware stack levels required when called:    4
 This function calls:
		_RF24_beginTransaction
		_RF24_endTransaction
		_SPI_transfer
 This function is called by:
		_RF24_startListening
		_RF24_openWritingPipe_d
		_RF24_openReadingPipe_d
		_RF24_openWritingPipe
		_RF24_openReadingPipe
 This function uses a non-reentrant model


 *************** function _SPI_transfer *****************
 Defined at:
		line 250 in file "../../../RF24_c/utility/XC8/spi.c"
 Parameters:    Size  Location     Type
  data            1    wreg     unsigned char 
 Auto vars:     Size  Location     Type
  data            1    3[COMRAM] unsigned char 
 Return value:  Size  Location     Type
                  1    wreg      unsigned char 
 Registers used:
		wreg, status,2
 Tracked objects:
		On entry : 
		On exit  : 
		Unchanged: 
 Data sizes:     COMRAM   BANK0   BANK1   BANK2   BANK3   BANK4   BANK5   BANK6   BANK7   BANK8   BANK9  BANK10  BANK11  BANK12  BANK13  BANK14  BANK15
      Params:         0       0       0       0       0       0       0       0       0       0       0       0       0       0       0       0       0
      Locals:         2       0       0       0       0       0       0       0       0       0       0       0       0       0       0       0       0
      Temps:          0       0       0       0       0       0       0       0       0       0       0       0       0       0       0       0       0
      Totals:         2       0       0       0       0       0       0       0       0       0       0       0       0       0       0       0       0
Total ram usage:        2 bytes
 Hardware stack levels used:    1
 Hardware stack levels required when called:    1
 This function calls:
		Nothing
 This function is called by:
		_RF24_read_register_d
		_RF24_write_register_c_d
		_RF24_write_register_d
		_RF24_write_payload
		_RF24_read_payload
		_RF24_spiTrans
		_RF24_getDynamicPayloadSize
		_RF24_toggle_features_d
		_RF24_read_register_m_d
		_RF24_writeAckPayload
 This function uses a non-reentrant model


 *************** function _RF24_endTransaction *****************
 Defined at:
		line 84 in file "../../../RF24_cg/RF24_cg.c"
 Parameters:    Size  Location     Type
		None
 Auto vars:     Size  Location     Type
		None
 Return value:  Size  Location     Type
                  1    wreg      void 
 Registers used:
		wreg, status,2, status,0, cstack
 Tracked objects:
		On entry : 
		On exit  : 
		Unchanged: 
 Data sizes:     COMRAM   BANK0   BANK1   BANK2   BANK3   BANK4   BANK5   BANK6   BANK7   BANK8   BANK9  BANK10  BANK11  BANK12  BANK13  BANK14  BANK15
      Params:         0       0       0       0       0       0       0       0       0       0       0       0       0       0       0       0       0
      Locals:         0       0       0       0       0       0       0       0       0       0       0       0       0       0       0       0       0
      Temps:          0       0       0       0       0       0       0       0       0       0       0       0       0       0       0       0       0
      Totals:         0       0       0       0       0       0       0       0       0       0       0       0       0       0       0       0       0
Total ram usage:        0 bytes
 Hardware stack levels used:    1
 Hardware stack levels required when called:    3
 This function calls:
		_RF24_csn_d
 This function is called by:
		_RF24_read_register_d
		_RF24_write_register_c_d
		_RF24_write_register_d
		_RF24_write_payload
		_RF24_read_payload
		_RF24_spiTrans
		_RF24_getDynamicPayloadSize
		_RF24_toggle_features_d
		_RF24_read_register_m_d
		_RF24_writeAckPayload
 This function uses a non-reentrant model


 *************** function _RF24_beginTransaction *****************
 Defined at:
		line 75 in file "../../../RF24_cg/RF24_cg.c"
 Parameters:    Size  Location     Type
		None
 Auto vars:     Size  Location     Type
		None
 Return value:  Size  Location     Type
                  1    wreg      void 
 Registers used:
		wreg, status,2, status,0, cstack
 Tracked objects:
		On entry : 
		On exit  : 
		Unchanged: 
 Data sizes:     COMRAM   BANK0   BANK1   BANK2   BANK3   BANK4   BANK5   BANK6   BANK7   BANK8   BANK9  BANK10  BANK11  BANK12  BANK13  BANK14  BANK15
      Params:         0       0       0       0       0       0       0       0       0       0       0       0       0       0       0       0       0
      Locals:         0       0       0       0       0       0       0       0       0       0       0       0       0       0       0       0       0
      Temps:          0       0       0       0       0       0       0       0       0       0       0       0       0       0       0       0       0
      Totals:         0       0       0       0       0       0       0       0       0       0       0       0       0       0       0       0       0
Total ram usage:        0 bytes
 Hardware stack levels used:    1
 Hardware stack levels required when called:    3
 This function calls:
		_RF24_csn_d
 This function is called by:
		_RF24_read_register_d
		_RF24_write_register_c_d
		_RF24_write_register_d
		_RF24_write_payload
		_RF24_read_payload
		_RF24_spiTrans
		_RF24_getDynamicPayloadSize
		_RF24_toggle_features_d
		_RF24_read_register_m_d
		_RF24_writeAckPayload
 This function uses a non-reentrant model


 *************** function _RF24_csn_d *****************
 Defined at:
		line 22 in file "../../../RF24_cg/RF24_cg.c"
 Parameters:    Size  Location     Type
  mode            1    wreg     unsigned char 
 Auto vars:     Size  Location     Type
  mode            1   15[COMRAM] unsigned char 
 Return value:  Size  Location     Type
                  1    wreg      void 
 Registers used:
		wreg, status,2, status,0, cstack
 Tracked objects:
		On entry : 
		On exit  : 
		Unchanged: 
 Data sizes:     COMRAM   BANK0   BANK1   BANK2   BANK3   BANK4   BANK5   BANK6   BANK7   BANK8   BANK9  BANK10  BANK11  BANK12  BANK13  BANK14  BANK15
      Params:         0       0       0       0       0       0       0       0       0       0       0       0       0       0       0       0       0
      Locals:         2       0       0       0       0       0       0       0       0       0       0       0       0       0       0       0       0
      Temps:          0       0       0       0       0       0       0       0       0       0       0       0       0       0       0       0       0
      Totals:         2       0       0       0       0       0       0       0       0       0       0       0       0       0       0       0       0
Total ram usage:        2 bytes
 Hardware stack levels used:    1
 Hardware stack levels required when called:    2
 This function calls:
		_delayMicroseconds
		_digitalWrite
 This function is called by:
		_RF24_beginTransaction
		_RF24_endTransaction
		_RF24_begin
 This function uses a non-reentrant model


 *************** function _RF24N_pipe_address *****************
 Defined at:
		line 1359 in file "../../../RF24Network_cg/RF24Network_cg.c"
 Parameters:    Size  Location     Type
  node            2    2[COMRAM] unsigned int 
  pipe            1    4[COMRAM] unsigned char 
  address         2    5[COMRAM] PTR unsigned char 
		 -> RF24N_multicastLevel@addr(5), RF24N_write_to_pipe@out_pipe(5), RF24N_begin_d@addr(5), 
 Auto vars:     Size  Location     Type
  result          5   22[COMRAM] unsigned char [5]
  out             2   30[COMRAM] PTR unsigned char 
		 -> RF24N_pipe_address@result(5), 
  dec             2   27[COMRAM] unsigned int 
  i               1   32[COMRAM] unsigned char 
  count           1   29[COMRAM] unsigned char 
 Return value:  Size  Location     Type
                  1    wreg      void 
 Registers used:
		wreg, fsr0l, fsr0h, fsr2l, fsr2h, status,2, status,0, prodl, prodh
 Tracked objects:
		On entry : 
		On exit  : 
		Unchanged: 
 Data sizes:     COMRAM   BANK0   BANK1   BANK2   BANK3   BANK4   BANK5   BANK6   BANK7   BANK8   BANK9  BANK10  BANK11  BANK12  BANK13  BANK14  BANK15
      Params:         5       0       0       0       0       0       0       0       0       0       0       0       0       0       0       0       0
      Locals:        22       0       0       0       0       0       0       0       0       0       0       0       0       0       0       0       0
      Temps:          4       0       0       0       0       0       0       0       0       0       0       0       0       0       0       0       0
      Totals:        31       0       0       0       0       0       0       0       0       0       0       0       0       0       0       0       0
Total ram usage:       31 bytes
 Hardware stack levels used:    1
 Hardware stack levels required when called:    1
 This function calls:
		Nothing
 This function is called by:
		_RF24N_begin_d
		_RF24N_write_to_pipe
		_RF24N_multicastLevel
 This function uses a non-reentrant model


 *************** function _digitalWrite *****************
 Defined at:
		line 62 in file "../../../RF24_c/utility/XC8/spi.c"
 Parameters:    Size  Location     Type
  pin             1    wreg     unsigned char 
  mode            1    2[COMRAM] unsigned char 
 Auto vars:     Size  Location     Type
  pin             1    4[COMRAM] unsigned char 
 Return value:  Size  Location     Type
                  1    wreg      void 
 Registers used:
		wreg, status,2, status,0
 Tracked objects:
		On entry : 
		On exit  : 
		Unchanged: 
 Data sizes:     COMRAM   BANK0   BANK1   BANK2   BANK3   BANK4   BANK5   BANK6   BANK7   BANK8   BANK9  BANK10  BANK11  BANK12  BANK13  BANK14  BANK15
      Params:         1       0       0       0       0       0       0       0       0       0       0       0       0       0       0       0       0
      Locals:         2       0       0       0       0       0       0       0       0       0       0       0       0       0       0       0       0
      Temps:          0       0       0       0       0       0       0       0       0       0       0       0       0       0       0       0       0
      Totals:         3       0       0       0       0       0       0       0       0       0       0       0       0       0       0       0       0
Total ram usage:        3 bytes
 Hardware stack levels used:    1
 Hardware stack levels required when called:    1
 This function calls:
		Nothing
 This function is called by:
		_loop
		_RF24_csn_d
		_RF24_ce_d
 This function uses a non-reentrant model


 *************** function _delayMicroseconds *****************
 Defined at:
		line 210 in file "../../../RF24_c/utility/XC8/spi.c"
 Parameters:    Size  Location     Type
  d               1    wreg     unsigned char 
 Auto vars:     Size  Location     Type
  d               1    9[COMRAM] unsigned char 
  j               2   12[COMRAM] unsigned int 
  i               2   10[COMRAM] unsigned int 
 Return value:  Size  Location     Type
                  1    wreg      void 
 Registers used:
		wreg, status,2, status,0
 Tracked objects:
		On entry : 
		On exit  : 
		Unchanged: 
 Data sizes:     COMRAM   BANK0   BANK1   BANK2   BANK3   BANK4   BANK5   BANK6   BANK7   BANK8   BANK9  BANK10  BANK11  BANK12  BANK13  BANK14  BANK15
      Params:         0       0       0       0       0       0       0       0       0       0       0       0       0       0       0       0       0
      Locals:        10       0       0       0       0       0       0       0       0       0       0       0       0       0       0       0       0
      Temps:          2       0       0       0       0       0       0       0       0       0       0       0       0       0       0       0       0
      Totals:        12       0       0       0       0       0       0       0       0       0       0       0       0       0       0       0       0
Total ram usage:       12 bytes
 Hardware stack levels used:    1
 Hardware stack levels required when called:    1
 This function calls:
		Nothing
 This function is called by:
		_RF24_csn_d
		_RF24_stopListening
		_RF24N_write_
		_RF24_startWrite
 This function uses a non-reentrant model


 *************** function _RF24_ce_d *****************
 Defined at:
		line 67 in file "../../../RF24_cg/RF24_cg.c"
 Parameters:    Size  Location     Type
  level           1    wreg     unsigned char 
 Auto vars:     Size  Location     Type
  level           1    6[COMRAM] unsigned char 
 Return value:  Size  Location     Type
                  1    wreg      void 
 Registers used:
		wreg, status,2, status,0, cstack
 Tracked objects:
		On entry : 
		On exit  : 
		Unchanged: 
 Data sizes:     COMRAM   BANK0   BANK1   BANK2   BANK3   BANK4   BANK5   BANK6   BANK7   BANK8   BANK9  BANK10  BANK11  BANK12  BANK13  BANK14  BANK15
      Params:         0       0       0       0       0       0       0       0       0       0       0       0       0       0       0       0       0
      Locals:         2       0       0       0       0       0       0       0       0       0       0       0       0       0       0       0       0
      Temps:          0       0       0       0       0       0       0       0       0       0       0       0       0       0       0       0       0
      Totals:         2       0       0       0       0       0       0       0       0       0       0       0       0       0       0       0       0
Total ram usage:        2 bytes
 Hardware stack levels used:    1
 Hardware stack levels required when called:    2
 This function calls:
		_digitalWrite
 This function is called by:
		_RF24_begin
		_RF24_startListening
		_RF24_stopListening
		_RF24_startFastWrite
		_RF24_txStandBy_t
		_RF24_powerDown
		_RF24_write_m
		_RF24_reUseTX
		_RF24_startWrite
		_RF24_txStandBy
 This function uses a non-reentrant model


 *************** function _RF24_flush_tx *****************
 Defined at:
		line 348 in file "../../../RF24_cg/RF24_cg.c"
 Parameters:    Size  Location     Type
		None
 Auto vars:     Size  Location     Type
		None
 Return value:  Size  Location     Type
                  1    wreg      unsigned char 
 Registers used:
		wreg, status,2, status,0, cstack
 Tracked objects:
		On entry : 
		On exit  : 
		Unchanged: 
 Data sizes:     COMRAM   BANK0   BANK1   BANK2   BANK3   BANK4   BANK5   BANK6   BANK7   BANK8   BANK9  BANK10  BANK11  BANK12  BANK13  BANK14  BANK15
      Params:         0       0       0       0       0       0       0       0       0       0       0       0       0       0       0       0       0
      Locals:         0       0       0       0       0       0       0       0       0       0       0       0       0       0       0       0       0
      Temps:          0       0       0       0       0       0       0       0       0       0       0       0       0       0       0       0       0
      Totals:         0       0       0       0       0       0       0       0       0       0       0       0       0       0       0       0       0
Total ram usage:        0 bytes
 Hardware stack levels used:    1
 Hardware stack levels required when called:    5
 This function calls:
		_RF24_spiTrans
 This function is called by:
		_RF24_begin
		_RF24_startListening
		_RF24_stopListening
		_RF24_txStandBy_t
		_RF24_write_m
		_RF24_txStandBy
 This function uses a non-reentrant model


 *************** function _RF24_powerUp *****************
 Defined at:
		line 791 in file "../../../RF24_cg/RF24_cg.c"
 Parameters:    Size  Location     Type
		None
 Auto vars:     Size  Location     Type
  cfg             1   26[COMRAM] unsigned char 
 Return value:  Size  Location     Type
                  1    wreg      void 
 Registers used:
		wreg, status,2, status,0, cstack
 Tracked objects:
		On entry : 
		On exit  : 
		Unchanged: 
 Data sizes:     COMRAM   BANK0   BANK1   BANK2   BANK3   BANK4   BANK5   BANK6   BANK7   BANK8   BANK9  BANK10  BANK11  BANK12  BANK13  BANK14  BANK15
      Params:         0       0       0       0       0       0       0       0       0       0       0       0       0       0       0       0       0
      Locals:         2       0       0       0       0       0       0       0       0       0       0       0       0       0       0       0       0
      Temps:          0       0       0       0       0       0       0       0       0       0       0       0       0       0       0       0       0
      Totals:         2       0       0       0       0       0       0       0       0       0       0       0       0       0       0       0       0
Total ram usage:        2 bytes
 Hardware stack levels used:    1
 Hardware stack levels required when called:    5
 This function calls:
		_RF24_read_register_d
		_RF24_write_register_d
		_delay
 This function is called by:
		_RF24_begin
		_RF24_startListening
 This function uses a non-reentrant model


 *************** function _RF24_available_p *****************
 Defined at:
		line 1098 in file "../../../RF24_cg/RF24_cg.c"
 Parameters:    Size  Location     Type
  pipe_num        2   20[COMRAM] PTR unsigned char 
		 -> RF24N_update@pipe_num(1), NULL(0), 
 Auto vars:     Size  Location     Type
  status          1   24[COMRAM] unsigned char 
 Return value:  Size  Location     Type
                  1    wreg      unsigned char 
 Registers used:
		wreg, fsr2l, fsr2h, status,2, status,0, cstack
 Tracked objects:
		On entry : 
		On exit  : 
		Unchanged: 
 Data sizes:     COMRAM   BANK0   BANK1   BANK2   BANK3   BANK4   BANK5   BANK6   BANK7   BANK8   BANK9  BANK10  BANK11  BANK12  BANK13  BANK14  BANK15
      Params:         2       0       0       0       0       0       0       0       0       0       0       0       0       0       0       0       0
      Locals:         2       0       0       0       0       0       0       0       0       0       0       0       0       0       0       0       0
      Temps:          1       0       0       0       0       0       0       0       0       0       0       0       0       0       0       0       0
      Totals:         5       0       0       0       0       0       0       0       0       0       0       0       0       0       0       0       0
Total ram usage:        5 bytes
 Hardware stack levels used:    1
 Hardware stack levels required when called:    6
 This function calls:
		_RF24_get_status
		_RF24_read_register_d
 This function is called by:
		_RF24_available
		_RF24N_update
 This function uses a non-reentrant model


 *************** function _RF24N_levelToAddress *****************
 Defined at:
		line 1346 in file "../../../RF24Network_cg/RF24Network_cg.c"
 Parameters:    Size  Location     Type
  level           1    wreg     unsigned char 
 Auto vars:     Size  Location     Type
  level           1   10[COMRAM] unsigned char 
  levelAddr       2   11[COMRAM] unsigned int 
 Return value:  Size  Location     Type
                  2    2[COMRAM] unsigned int 
 Registers used:
		wreg, status,2, status,0, prodl, prodh
 Tracked objects:
		On entry : 
		On exit  : 
		Unchanged: 
 Data sizes:     COMRAM   BANK0   BANK1   BANK2   BANK3   BANK4   BANK5   BANK6   BANK7   BANK8   BANK9  BANK10  BANK11  BANK12  BANK13  BANK14  BANK15
      Params:         2       0       0       0       0       0       0       0       0       0       0       0       0       0       0       0       0
      Locals:         6       0       0       0       0       0       0       0       0       0       0       0       0       0       0       0       0
      Temps:          3       0       0       0       0       0       0       0       0       0       0       0       0       0       0       0       0
      Totals:        11       0       0       0       0       0       0       0       0       0       0       0       0       0       0       0       0
Total ram usage:       11 bytes
 Hardware stack levels used:    1
 Hardware stack levels required when called:    1
 This function calls:
		Nothing
 This function is called by:
		_RF24N_update
		_RF24N_multicast
		_RF24N_multicastLevel
 This function uses a non-reentrant model


 *************** function _RF24_isValid *****************
 Defined at:
		line 1420 in file "../../../RF24_cg/RF24_cg.c"
 Parameters:    Size  Location     Type
		None
 Auto vars:     Size  Location     Type
		None
 Return value:  Size  Location     Type
                  1    wreg      unsigned char 
 Registers used:
		wreg, status,2, status,0
 Tracked objects:
		On entry : 
		On exit  : 
		Unchanged: 
 Data sizes:     COMRAM   BANK0   BANK1   BANK2   BANK3   BANK4   BANK5   BANK6   BANK7   BANK8   BANK9  BANK10  BANK11  BANK12  BANK13  BANK14  BANK15
      Params:         0       0       0       0       0       0       0       0       0       0       0       0       0       0       0       0       0
      Locals:         2       0       0       0       0       0       0       0       0       0       0       0       0       0       0       0       0
      Temps:          0       0       0       0       0       0       0       0       0       0       0       0       0       0       0       0       0
      Totals:         2       0       0       0       0       0       0       0       0       0       0       0       0       0       0       0       0
Total ram usage:        2 bytes
 Hardware stack levels used:    1
 Hardware stack levels required when called:    1
 This function calls:
		Nothing
 This function is called by:
		_RF24N_begin_d
		_RF24N_update
 This function uses a non-reentrant model


 *************** function _RF24N_is_valid_address *****************
 Defined at:
		line 1312 in file "../../../RF24Network_cg/RF24Network_cg.c"
 Parameters:    Size  Location     Type
  node            2    2[COMRAM] unsigned int 
 Auto vars:     Size  Location     Type
  digit           1    6[COMRAM] unsigned char 
  result          1    7[COMRAM] unsigned char 
 Return value:  Size  Location     Type
                  1    wreg      unsigned char 
 Registers used:
		wreg, status,2, status,0
 Tracked objects:
		On entry : 
		On exit  : 
		Unchanged: 
 Data sizes:     COMRAM   BANK0   BANK1   BANK2   BANK3   BANK4   BANK5   BANK6   BANK7   BANK8   BANK9  BANK10  BANK11  BANK12  BANK13  BANK14  BANK15
      Params:         2       0       0       0       0       0       0       0       0       0       0       0       0       0       0       0       0
      Locals:         4       0       0       0       0       0       0       0       0       0       0       0       0       0       0       0       0
      Temps:          0       0       0       0       0       0       0       0       0       0       0       0       0       0       0       0       0
      Totals:         6       0       0       0       0       0       0       0       0       0       0       0       0       0       0       0       0
Total ram usage:        6 bytes
 Hardware stack levels used:    1
 Hardware stack levels required when called:    1
 This function calls:
		Nothing
 This function is called by:
		_RF24N_begin_d
		_RF24N_update
		_RF24N_write
 This function uses a non-reentrant model


 *************** function _RF24_read_register_d *****************
 Defined at:
		line 131 in file "../../../RF24_cg/RF24_cg.c"
 Parameters:    Size  Location     Type
  reg             1    wreg     unsigned char 
 Auto vars:     Size  Location     Type
  reg             1   18[COMRAM] unsigned char 
  result          1   19[COMRAM] unsigned char 
 Return value:  Size  Location     Type
                  1    wreg      unsigned char 
 Registers used:
		wreg, status,2, status,0, cstack
 Tracked objects:
		On entry : 
		On exit  : 
		Unchanged: 
 Data sizes:     COMRAM   BANK0   BANK1   BANK2   BANK3   BANK4   BANK5   BANK6   BANK7   BANK8   BANK9  BANK10  BANK11  BANK12  BANK13  BANK14  BANK15
      Params:         0       0       0       0       0       0       0       0       0       0       0       0       0       0       0       0       0
      Locals:         4       0       0       0       0       0       0       0       0       0       0       0       0       0       0       0       0
      Temps:          0       0       0       0       0       0       0       0       0       0       0       0       0       0       0       0       0
      Totals:         4       0       0       0       0       0       0       0       0       0       0       0       0       0       0       0       0
Total ram usage:        4 bytes
 Hardware stack levels used:    1
 Hardware stack levels required when called:    4
 This function calls:
		_RF24_beginTransaction
		_RF24_endTransaction
		_SPI_transfer
 This function is called by:
		_RF24_begin
		_RF24_startListening
		_RF24_stopListening
		_RF24_powerUp
		_RF24_rxFifoFull
		_RF24_txStandBy_t
		_RF24_available_p
		_RF24_openReadingPipe_d
		_RF24_closeReadingPipe
		_RF24_enableDynamicPayloads
		_RF24_setAutoAck_p
		_RF24_setDataRate
		_RF24_getChannel
		_RF24_powerDown
		_RF24_txStandBy
		_RF24_maskIRQ
		_RF24_openReadingPipe
		_RF24_enableAckPayload
		_RF24_enableDynamicAck
		_RF24_isAckPayloadAvailable
		_RF24_testCarrier
		_RF24_testRPD
		_RF24_setPALevel
		_RF24_getPALevel
		_RF24_getDataRate
		_RF24_setCRCLength
		_RF24_getCRCLength
		_RF24_disableCRC
 This function uses a non-reentrant model


 *************** function _RF24_write_register_d *****************
 Defined at:
		line 194 in file "../../../RF24_cg/RF24_cg.c"
 Parameters:    Size  Location     Type
  reg             1    wreg     unsigned char 
  value           1   20[COMRAM] unsigned char 
 Auto vars:     Size  Location     Type
  reg             1   23[COMRAM] unsigned char 
  status          1   24[COMRAM] unsigned char 
 Return value:  Size  Location     Type
                  1    wreg      unsigned char 
 Registers used:
		wreg, status,2, status,0, cstack
 Tracked objects:
		On entry : 
		On exit  : 
		Unchanged: 
 Data sizes:     COMRAM   BANK0   BANK1   BANK2   BANK3   BANK4   BANK5   BANK6   BANK7   BANK8   BANK9  BANK10  BANK11  BANK12  BANK13  BANK14  BANK15
      Params:         1       0       0       0       0       0       0       0       0       0       0       0       0       0       0       0       0
      Locals:         4       0       0       0       0       0       0       0       0       0       0       0       0       0       0       0       0
      Temps:          0       0       0       0       0       0       0       0       0       0       0       0       0       0       0       0       0
      Totals:         5       0       0       0       0       0       0       0       0       0       0       0       0       0       0       0       0
Total ram usage:        5 bytes
 Hardware stack levels used:    1
 Hardware stack levels required when called:    4
 This function calls:
		_RF24_beginTransaction
		_RF24_endTransaction
		_SPI_transfer
 This function is called by:
		_RF24_setChannel
		_RF24_begin
		_RF24_startListening
		_RF24_stopListening
		_RF24_powerUp
		_RF24_writeFast_m
		_RF24_txStandBy_t
		_RF24_read
		_RF24_openWritingPipe_d
		_RF24_openReadingPipe_d
		_RF24_closeReadingPipe
		_RF24_enableDynamicPayloads
		_RF24_setAutoAck_p
		_RF24_setDataRate
		_RF24_setRetries
		_RF24_powerDown
		_RF24_write_m
		_RF24_reUseTX
		_RF24_txStandBy
		_RF24_maskIRQ
		_RF24_whatHappened
		_RF24_openWritingPipe
		_RF24_setAddressWidth
		_RF24_openReadingPipe
		_RF24_enableAckPayload
		_RF24_enableDynamicAck
		_RF24_setAutoAck
		_RF24_setPALevel
		_RF24_setCRCLength
		_RF24_disableCRC
 This function uses a non-reentrant model


 *************** function _millis *****************
 Defined at:
		line 173 in file "../../../RF24_c/utility/XC8/spi.c"
 Parameters:    Size  Location     Type
		None
 Auto vars:     Size  Location     Type
		None
 Return value:  Size  Location     Type
                  4    2[COMRAM] long 
 Registers used:
		None
 Tracked objects:
		On entry : 
		On exit  : 
		Unchanged: 
 Data sizes:     COMRAM   BANK0   BANK1   BANK2   BANK3   BANK4   BANK5   BANK6   BANK7   BANK8   BANK9  BANK10  BANK11  BANK12  BANK13  BANK14  BANK15
      Params:         4       0       0       0       0       0       0       0       0       0       0       0       0       0       0       0       0
      Locals:         0       0       0       0       0       0       0       0       0       0       0       0       0       0       0       0       0
      Temps:          0       0       0       0       0       0       0       0       0       0       0       0       0       0       0       0       0
      Totals:         4       0       0       0       0       0       0       0       0       0       0       0       0       0       0       0       0
Total ram usage:        4 bytes
 Hardware stack levels used:    1
 Hardware stack levels required when called:    1
 This function calls:
		Nothing
 This function is called by:
		_stats_page
		_loop
		_clock_time
		_RF24_txStandBy_t
		_RF24N_write_
		_RF24N_write
		_RF24M_getAddress
		_RF24M_getNodeID
		_RF24M_renewAddress
		_RF24M_requestAddress
		_serialip_appcall
		_RF24EC_timedRead
		_RF24_writeBlocking
		_RF24M_write
		_RF24M_DHCP
		_RF24EC_waitAvailable
		_RF24EC_timedPeek
 This function uses a non-reentrant model


 *************** function _delay *****************
 Defined at:
		line 181 in file "../../../RF24_c/utility/XC8/spi.c"
 Parameters:    Size  Location     Type
  val             2    8[COMRAM] unsigned int 
 Auto vars:     Size  Location     Type
  j               2   16[COMRAM] unsigned int 
  i               2   14[COMRAM] unsigned int 
 Return value:  Size  Location     Type
                  1    wreg      void 
 Registers used:
		wreg, status,2, status,0
 Tracked objects:
		On entry : 
		On exit  : 
		Unchanged: 
 Data sizes:     COMRAM   BANK0   BANK1   BANK2   BANK3   BANK4   BANK5   BANK6   BANK7   BANK8   BANK9  BANK10  BANK11  BANK12  BANK13  BANK14  BANK15
      Params:         2       0       0       0       0       0       0       0       0       0       0       0       0       0       0       0       0
      Locals:         8       0       0       0       0       0       0       0       0       0       0       0       0       0       0       0       0
      Temps:          0       0       0       0       0       0       0       0       0       0       0       0       0       0       0       0       0
      Totals:        10       0       0       0       0       0       0       0       0       0       0       0       0       0       0       0       0
Total ram usage:       10 bytes
 Hardware stack levels used:    1
 Hardware stack levels required when called:    1
 This function calls:
		Nothing
 This function is called by:
		_RF24_begin
		_RF24_powerUp
		_RF24_getDynamicPayloadSize
		_RF24N_update
		_RF24N_write_
		_RF24M_checkConnection
		_RF24M_renewAddress
		_RF24M_requestAddress
		_Serial_rx
		_RF24M_write
		_RF24M_DHCP
 This function uses a non-reentrant model


 *************** function _RF24_startListening *****************
 Defined at:
		line 723 in file "../../../RF24_cg/RF24_cg.c"
 Parameters:    Size  Location     Type
		None
 Auto vars:     Size  Location     Type
		None
 Return value:  Size  Location     Type
                  1    wreg      void 
 Registers used:
		wreg, fsr2l, fsr2h, status,2, status,0, tblptrl, tblptrh, tblptru, prodl, prodh, cstack
 Tracked objects:
		On entry : 
		On exit  : 
		Unchanged: 
 Data sizes:     COMRAM   BANK0   BANK1   BANK2   BANK3   BANK4   BANK5   BANK6   BANK7   BANK8   BANK9  BANK10  BANK11  BANK12  BANK13  BANK14  BANK15
      Params:         0       0       0       0       0       0       0       0       0       0       0       0       0       0       0       0       0
      Locals:         0       0       0       0       0       0       0       0       0       0       0       0       0       0       0       0       0
      Temps:          1       0       0       0       0       0       0       0       0       0       0       0       0       0       0       0       0
      Totals:         1       0       0       0       0       0       0       0       0       0       0       0       0       0       0       0       0
Total ram usage:        1 bytes
 Hardware stack levels used:    1
 Hardware stack levels required when called:    6
 This function calls:
		_RF24_ce_d
		_RF24_closeReadingPipe
		_RF24_flush_tx
		_RF24_powerUp
		_RF24_read_register_d
		_RF24_write_register_c_d
		_RF24_write_register_d
 This function is called by:
		_RF24N_begin_d
		_RF24N_write_
		_RF24N_write
		_RF24M_setChannel
 This function uses a non-reentrant model


 *************** function _RF24_stopListening *****************
 Defined at:
		line 754 in file "../../../RF24_cg/RF24_cg.c"
 Parameters:    Size  Location     Type
		None
 Auto vars:     Size  Location     Type
		None
 Return value:  Size  Location     Type
                  1    wreg      void 
 Registers used:
		wreg, status,2, status,0, tblptrl, tblptrh, tblptru, cstack
 Tracked objects:
		On entry : 
		On exit  : 
		Unchanged: 
 Data sizes:     COMRAM   BANK0   BANK1   BANK2   BANK3   BANK4   BANK5   BANK6   BANK7   BANK8   BANK9  BANK10  BANK11  BANK12  BANK13  BANK14  BANK15
      Params:         0       0       0       0       0       0       0       0       0       0       0       0       0       0       0       0       0
      Locals:         0       0       0       0       0       0       0       0       0       0       0       0       0       0       0       0       0
      Temps:          2       0       0       0       0       0       0       0       0       0       0       0       0       0       0       0       0
      Totals:         2       0       0       0       0       0       0       0       0       0       0       0       0       0       0       0       0
Total ram usage:        2 bytes
 Hardware stack levels used:    1
 Hardware stack levels required when called:    6
 This function calls:
		_RF24_ce_d
		_RF24_flush_tx
		_RF24_read_register_d
		_RF24_write_register_d
		_delayMicroseconds
 This function is called by:
		_RF24_txStandBy_t
		_RF24N_enqueue
		_RF24N_write_
		_RF24N_write_to_pipe
		_RF24M_checkConnection
		_RF24M_renewAddress
		_RF24M_requestAddress
 This function uses a non-reentrant model


 *************** function _RF24_txStandBy_t *****************
 Defined at:
		line 1018 in file "../../../RF24_cg/RF24_cg.c"
 Parameters:    Size  Location     Type
  timeout         4   27[COMRAM] unsigned long 
  startTx         1   31[COMRAM] unsigned char 
 Auto vars:     Size  Location     Type
  start           4   44[COMRAM] unsigned long 
 Return value:  Size  Location     Type
                  1    wreg      unsigned char 
 Registers used:
		wreg, status,2, status,0, tblptrl, tblptrh, tblptru, cstack
 Tracked objects:
		On entry : 
		On exit  : 
		Unchanged: 
 Data sizes:     COMRAM   BANK0   BANK1   BANK2   BANK3   BANK4   BANK5   BANK6   BANK7   BANK8   BANK9  BANK10  BANK11  BANK12  BANK13  BANK14  BANK15
      Params:         5       0       0       0       0       0       0       0       0       0       0       0       0       0       0       0       0
      Locals:         8       0       0       0       0       0       0       0       0       0       0       0       0       0       0       0       0
      Temps:          8       0       0       0       0       0       0       0       0       0       0       0       0       0       0       0       0
      Totals:        21       0       0       0       0       0       0       0       0       0       0       0       0       0       0       0       0
Total ram usage:       21 bytes
 Hardware stack levels used:    1
 Hardware stack levels required when called:    7
 This function calls:
		_RF24_ce_d
		_RF24_flush_tx
		_RF24_get_status
		_RF24_read_register_d
		_RF24_stopListening
		_RF24_write_register_d
		_millis
 This function is called by:
		_RF24N_write_
		_RF24N_write
		_RF24N_write_to_pipe
 This function uses a non-reentrant model


 *************** function _RF24_setAutoAck_p *****************
 Defined at:
		line 1387 in file "../../../RF24_cg/RF24_cg.c"
 Parameters:    Size  Location     Type
  pipe            1    wreg     unsigned char 
  enable          1   25[COMRAM] unsigned char 
 Auto vars:     Size  Location     Type
  pipe            1   31[COMRAM] unsigned char 
  en_aa           1   30[COMRAM] unsigned char 
 Return value:  Size  Location     Type
                  1    wreg      void 
 Registers used:
		wreg, status,2, status,0, cstack
 Tracked objects:
		On entry : 
		On exit  : 
		Unchanged: 
 Data sizes:     COMRAM   BANK0   BANK1   BANK2   BANK3   BANK4   BANK5   BANK6   BANK7   BANK8   BANK9  BANK10  BANK11  BANK12  BANK13  BANK14  BANK15
      Params:         1       0       0       0       0       0       0       0       0       0       0       0       0       0       0       0       0
      Locals:         4       0       0       0       0       0       0       0       0       0       0       0       0       0       0       0       0
      Temps:          2       0       0       0       0       0       0       0       0       0       0       0       0       0       0       0       0
      Totals:         7       0       0       0       0       0       0       0       0       0       0       0       0       0       0       0       0
Total ram usage:        7 bytes
 Hardware stack levels used:    1
 Hardware stack levels required when called:    5
 This function calls:
		_RF24_read_register_d
		_RF24_write_register_d
 This function is called by:
		_RF24N_begin_d
		_RF24N_write_
		_RF24N_write
		_RF24N_write_to_pipe
 This function uses a non-reentrant model


 *************** function _RF24N_update *****************
 Defined at:
		line 226 in file "../../../RF24Network_cg/RF24Network_cg.c"
 Parameters:    Size  Location     Type
		None
 Auto vars:     Size  Location     Type
  val             1  [STACK] unsigned char 
  requester       2    0        unsigned int 
  header          2  [STACK] PTR struct .
		 -> rn.frame_buffer(32), rn(370), 
  returnVal       1  [STACK] unsigned char 
  pipe_num        1  [STACK] unsigned char 
 Return value:  Size  Location     Type
                  1  [STACK] unsigned char 
 Registers used:
		wreg, fsr0l, fsr0h, fsr1l, fsr1h, fsr2l, fsr2h, status,2, status,0, pclat, btemp, btemp+1, btemp+2, btemp+3, btemp+4, btemp+5, btemp+6, btemp+7, btemp+8, btemp+9, btemp+10, btemp+11, tosl, structret, tblptrl, tblptrh, tblptru, prodl, prodh, bsr, cstack
 Tracked objects:
		On entry : 
		On exit  : 
		Unchanged: 
 Data sizes:     COMRAM   BANK0   BANK1   BANK2   BANK3   BANK4   BANK5   BANK6   BANK7   BANK8   BANK9  BANK10  BANK11  BANK12  BANK13  BANK14  BANK15
      Params:         0       0       0       0       0       0       0       0       0       0       0       0       0       0       0       0       0
      Locals:         0       0       0       0       0       0       0       0       0       0       0       0       0       0       0       0       0
      Temps:          0       0       0       0       0       0       0       0       0       0       0       0       0       0       0       0       0
      Totals:         0       0       0       0       0       0       0       0       0       0       0       0       0       0       0       0       0
Total ram usage:        0 bytes
 Hardware stack levels used:    1
 Hardware stack levels required when called:   10
 This function calls:
		_RF24N_available
		_RF24N_enqueue
		_RF24N_is_valid_address
		_RF24N_levelToAddress
		_RF24N_write
		_RF24_available_p
		_RF24_getDynamicPayloadSize
		_RF24_isValid
		_RF24_read
		_delay
 This function is called by:
		_RF24N_write_
		_RF24N_write
		_RF24M_update
		_RF24M_getAddress
		_RF24M_getNodeID
		_RF24M_requestAddress
		_RF24E_tick
		_RF24M_DHCP
 This function uses a recursive model


 *************** function _RF24N_write *****************
 Defined at:
		line 981 in file "../../../RF24Network_cg/RF24Network_cg.c"
 Parameters:    Size  Location     Type
  to_node         2  [STACK] unsigned int 
  directTo        1  [STACK] unsigned char 
 Auto vars:     Size  Location     Type
  header          2  [STACK] PTR struct .
		 -> rn.frame_buffer(32), rn(370), 
  conversion      4  [STACK] struct .
  reply_time      4  [STACK] unsigned long 
  ok              1  [STACK] unsigned char 
  isAckType       1  [STACK] unsigned char 
 Return value:  Size  Location     Type
                  1  [STACK] unsigned char 
 Registers used:
		wreg, fsr0l, fsr0h, fsr1l, fsr1h, fsr2l, fsr2h, status,2, status,0, pclat, btemp, btemp+1, btemp+2, btemp+3, btemp+4, btemp+5, btemp+6, btemp+7, btemp+8, btemp+9, btemp+10, btemp+11, tosl, structret, tblptrl, tblptrh, tblptru, prodl, prodh, bsr, cstack
 Tracked objects:
		On entry : 
		On exit  : 
		Unchanged: 
 Data sizes:     COMRAM   BANK0   BANK1   BANK2   BANK3   BANK4   BANK5   BANK6   BANK7   BANK8   BANK9  BANK10  BANK11  BANK12  BANK13  BANK14  BANK15
      Params:         0       0       0       0       0       0       0       0       0       0       0       0       0       0       0       0       0
      Locals:         0       0       0       0       0       0       0       0       0       0       0       0       0       0       0       0       0
      Temps:          0       0       0       0       0       0       0       0       0       0       0       0       0       0       0       0       0
      Totals:         0       0       0       0       0       0       0       0       0       0       0       0       0       0       0       0       0
Total ram usage:        0 bytes
 Hardware stack levels used:    1
 Hardware stack levels required when called:    9
 This function calls:
		_RF24N_is_valid_address
		_RF24N_logicalToPhysicalAddress
		_RF24N_update
		_RF24N_write_to_pipe
		_RF24_setAutoAck_p
		_RF24_startListening
		_RF24_txStandBy_t
		_millis
 This function is called by:
		_RF24N_update
		_RF24N__write
 This function uses a recursive model


 *************** function _isr *****************
 Defined at:
		line 14 in file "pic_main.c"
 Parameters:    Size  Location     Type
		None
 Auto vars:     Size  Location     Type
		None
 Return value:  Size  Location     Type
                  1    wreg      void 
 Registers used:
		wreg, status,2, status,0
 Tracked objects:
		On entry : 
		On exit  : 
		Unchanged: 
 Data sizes:     COMRAM   BANK0   BANK1   BANK2   BANK3   BANK4   BANK5   BANK6   BANK7   BANK8   BANK9  BANK10  BANK11  BANK12  BANK13  BANK14  BANK15
      Params:         0       0       0       0       0       0       0       0       0       0       0       0       0       0       0       0       0
      Locals:         0       0       0       0       0       0       0       0       0       0       0       0       0       0       0       0       0
      Temps:          2       0       0       0       0       0       0       0       0       0       0       0       0       0       0       0       0
      Totals:         2       0       0       0       0       0       0       0       0       0       0       0       0       0       0       0       0
Total ram usage:        2 bytes
 Hardware stack levels used:    1
 This function calls:
		Nothing
 This function is called by:
		Interrupt level 2
 This function uses a non-reentrant model



MODULE INFORMATION

Module		Function		Class		Link	Load	Size
../../../RF24_c/utility/XC8/spi.c
		_millis        		CODE           	9FCA	0000	19
		_delay         		CODE           	9602	0000	75
		_delayMicroseconds		CODE           	98F8	0000	65
		_SPI_begin     		CODE           	9EEE	0000	27
		_digitalWrite  		CODE           	66C0	0000	639
		_pinMode       		CODE           	6442	0000	639
		_SPI_transfer  		CODE           	9FFC	0000	17

../../../RF24_c/utility/XC8/spi.c estimated size: 1481

serial.c
		_itoa_         		CODE           	9BB6	0000	47
		_Serial_tx     		CODE           	A01A	0000	13
		_Serial_begin  		CODE           	8C46	0000	123
		_Serial_print  		CODE           	8B4C	0000	127
		_Serial_println		CODE           	9C68	0000	41

serial.c estimated size: 351

/opt/microchip/xc8/v1.38/sources/common/strlen.c
		_strlen        		CODE           	91C6	0000	95

/opt/microchip/xc8/v1.38/sources/common/strlen.c estimated size: 95

/opt/microchip/xc8/v1.38/sources/common/lwmod.c
		___lwmod       		CODE           	9836	0000	67

/opt/microchip/xc8/v1.38/sources/common/lwmod.c estimated size: 67

/opt/microchip/xc8/v1.38/sources/common/strcmp.c
		_strcmp        		CODE           	956E	0000	75

/opt/microchip/xc8/v1.38/sources/common/strcmp.c estimated size: 75

/opt/microchip/xc8/v1.38/sources/common/awmod.c
		___awmod       		CODE           	8E20	0000	113

/opt/microchip/xc8/v1.38/sources/common/awmod.c estimated size: 113

../../../RF24Ethernet_cg/RF24Client_cg.c
		_RF24EC_read   		CODE           	9D2A	0000	39
		_RF24EC_init   		CODE           	9E02	0000	33
		_RF24EC_stop   		CODE           	74A2	0000	309
		_RF24EC_timedRead		CODE           	8824	0000	143
		_RF24EC_valid  		CODE           	8ACA	0000	131
		_RF24EC_write  		CODE           	9CDE	0000	39
		_RF24EC_flush  		CODE           	8CC0	0000	121
		_RF24EC_available		CODE           	9F08	0000	27
		_RF24EC_read_b 		CODE           	4598	0000	1183
		_RF24EC_init_d 		CODE           	9E7E	0000	29
		_RF24EC__write 		CODE           	4A36	0000	903
		_RF24EC_findUntil		CODE           	964C	0000	73
		_RF24EC_findMulti		CODE           	5814	0000	859
		_RF24EC__available		CODE           	8BCA	0000	125
		_RF24EC__allocateData		CODE           	82DC	0000	187
		_serialip_appcall		CODE           	2CCA	0000	3593
		_RF24EC_write_s		CODE           	9B88	0000	47
		_RF24EC_findUntil_f		CODE           	8500	0000	179

../../../RF24Ethernet_cg/RF24Client_cg.c estimated size: 8020

/opt/microchip/xc8/v1.38/sources/common/putch.c
		_putch         		CODE           	A0A8	0000	3

/opt/microchip/xc8/v1.38/sources/common/putch.c estimated size: 3

/opt/microchip/xc8/v1.38/sources/common/llmod.c
		___llmod       		CODE           	8FD0	0000	103

/opt/microchip/xc8/v1.38/sources/common/llmod.c estimated size: 103

/opt/microchip/xc8/v1.38/sources/common/isdigit.c
		_isdigit       		CODE           	9E42	0000	31

/opt/microchip/xc8/v1.38/sources/common/isdigit.c estimated size: 31

../../../RF24Mesh_cg/RF24Mesh_cg.c
		_RF24M_getAddress		CODE           	6B88	0000	565
		_RF24M_renewAddress		CODE           	71F6	0000	363
		_RF24M_init    		CODE           	A0A2	0000	3
		_RF24M_getNodeID		CODE           	6FE8	0000	527
		_RF24M_setAddress		CODE           	7F28	0000	197
		_RF24M_begin   		CODE           	88B2	0000	141
		_RF24M_loadDHCP		CODE           	A0A4	0000	3
		_RF24M_setNodeID		CODE           	A062	0000	9
		_RF24M_update  		CODE           	6DBC	0000	557
		_RF24M_requestAddress		CODE           	4DBC	0000	895
		_RF24M_checkConnection		CODE           	8396	0000	185

../../../RF24Mesh_cg/RF24Mesh_cg.c estimated size: 3445

/opt/microchip/xc8/v1.38/sources/common/sprintf.c
		_sprintf       		CODE           	97F4	0000	67

/opt/microchip/xc8/v1.38/sources/common/sprintf.c estimated size: 67

InteractiveServer_Mesh.c
		_loop          		CODE           	693E	0000	587
		_generate_tcp_stats		CODE           	6196	0000	685
		_setup         		CODE           	844E	0000	179

InteractiveServer_Mesh.c estimated size: 1451

../../../RF24_cg/RF24_cg.c
		_RF24_setChannel		CODE           	9D04	0000	39
		_RF24_txStandBy_t		CODE           	8166	0000	189
		_RF24_setRetries		CODE           	9D9C	0000	35
		_RF24_available_p		CODE           	9B26	0000	51
		_RF24_read     		CODE           	9E9A	0000	29
		_RF24_openReadingPipe_d		CODE           	75D6	0000	299
		_RF24_openWritingPipe_d		CODE           	8D38	0000	119
		_RF24_write_payload		CODE           	8792	0000	147
		_RF24_spiTrans 		CODE           	9F7C	0000	23
		_RF24_init     		CODE           	9938	0000	61
		_RF24_available		CODE           	A00C	0000	15
		_RF24_endTransaction		CODE           	A082	0000	9
		_RF24_closeReadingPipe		CODE           	97AE	0000	71
		_RF24_beginTransaction		CODE           	A08A	0000	9
		_RF24_read_payload		CODE           	893E	0000	135
		_RF24_stopListening		CODE           	8F66	0000	107
		_RF24_getDynamicPayloadSize		CODE           	99E6	0000	57
		_RF24_enableDynamicPayloads		CODE           	9C90	0000	41
		_RF24_powerUp  		CODE           	9D76	0000	39
		_RF24_toggle_features_d		CODE           	9F3A	0000	23
		_RF24_read_register_d		CODE           	9E60	0000	31
		_RF24_setDataRate		CODE           	8EFC	0000	107
		_RF24_csn_d    		CODE           	9F22	0000	25
		_RF24_begin    		CODE           	7AE8	0000	223
		_RF24_write_register_d		CODE           	9E22	0000	33
		_RF24_setAutoAck_p		CODE           	9392	0000	87
		_RF24_isValid  		CODE           	9ED2	0000	29
		_RF24_rxFifoFull		CODE           	A032	0000	11
		_RF24_startListening		CODE           	933A	0000	89
		_RF24_startFastWrite		CODE           	99AE	0000	57
		_RF24_writeFast_m		CODE           	98B8	0000	65
		_RF24_get_status		CODE           	A072	0000	9
		_RF24_write_register_c_d		CODE           	9AC0	0000	53
		_RF24_flush_rx 		CODE           	A07A	0000	9
		_RF24_flush_tx 		CODE           	A092	0000	9
		_RF24_ce_d     		CODE           	9EB6	0000	29

../../../RF24_cg/RF24_cg.c estimated size: 2364

/opt/microchip/xc8/v1.38/sources/common/lwdiv.c
		___lwdiv       		CODE           	93E8	0000	83

/opt/microchip/xc8/v1.38/sources/common/lwdiv.c estimated size: 83

/opt/microchip/xc8/v1.38/sources/common/awdiv.c
		___awdiv       		CODE           	89C4	0000	133

/opt/microchip/xc8/v1.38/sources/common/awdiv.c estimated size: 133

umalloc.c
		_malloc        		CODE           	92DE	0000	93
		_free          		CODE           	A03C	0000	11
		_realloc       		CODE           	9DBE	0000	35

umalloc.c estimated size: 139

/opt/microchip/xc8/v1.38/sources/common/doprnt.c
		__doprnt       		CODE           	1C08	0000	4291

/opt/microchip/xc8/v1.38/sources/common/doprnt.c estimated size: 4291

/opt/microchip/xc8/v1.38/sources/common/lldiv.c
		___lldiv       		CODE           	8A48	0000	131

/opt/microchip/xc8/v1.38/sources/common/lldiv.c estimated size: 131

../../utility/timer.c
		_timer_set     		CODE           	9974	0000	59
		_timer_reset   		CODE           	9A1E	0000	55
		_timer_expired 		CODE           	8DAE	0000	115

../../utility/timer.c estimated size: 229

HTML.h
		_stats_page    		CODE           	513A	0000	891
		_credits_page  		CODE           	9722	0000	71
		_sendPage      		CODE           	943A	0000	81
		_main_page     		CODE           	7360	0000	323

HTML.h estimated size: 1366

/opt/microchip/xc8/v1.38/sources/common/memcpy.c
		_memcpy        		CODE           	9224	0000	95

/opt/microchip/xc8/v1.38/sources/common/memcpy.c estimated size: 95

../../clock-arch.c
		_clock_time    		CODE           	9F66	0000	23

../../clock-arch.c estimated size: 23

../../../RF24Network_cg/RF24Network_cg.c
		_RF24N_pipe_address		CODE           	7700	0000	287
		_RF24N_write_to_pipe		CODE           	86FE	0000	149
		_RF24N_write   		CODE           	5B6E	0000	791
		_RF24N_getNetworkFlags		CODE           	A06A	0000	9
		_RF24N_write_  		CODE           	5E84	0000	787
		_RF24N_logicalToPhysicalAddress		CODE           	7A06	0000	227
		_RF24N_write_m 		CODE           	9C3E	0000	43
		_RF24N_getFrame_buffer		CODE           	A046	0000	11
		_RF24N_setNetworkFlags		CODE           	A026	0000	13
		_RF24N_init    		CODE           	9282	0000	93
		_RF24N_getFrag_ptr		CODE           	A050	0000	11
		_RF24N_available		CODE           	9DE0	0000	35
		_RF24N_direct_child_route_to		CODE           	9A54	0000	55
		_RF24N_setReturnSysMsgs		CODE           	A05A	0000	9
		_RF24N__write  		CODE           	7E52	0000	215
		_RF24N_is_valid_address		CODE           	9A8A	0000	55
		_RF24N_begin   		CODE           	9FDC	0000	17
		_RF24NH_init   		CODE           	9878	0000	65
		_RF24N_begin_d 		CODE           	7CA2	0000	217
		_RF24N_update  		CODE           	4046	0000	1363
		_RF24N_levelToAddress		CODE           	94D8	0000	77
		_RF24N_multicast		CODE           	909C	0000	101
		_RF24N_enqueue 		CODE           	3AD2	0000	1397
		_RF24N_is_direct_child		CODE           	9100	0000	101
		_RF24N_is_descendant		CODE           	9BE4	0000	47
		_RF24N_setup_address		CODE           	7BC6	0000	221

../../../RF24Network_cg/RF24Network_cg.c estimated size: 6396

/opt/microchip/xc8/v1.38/sources/common/ltoa.c
		_ultoa         		CODE           	781E	0000	247

/opt/microchip/xc8/v1.38/sources/common/ltoa.c estimated size: 247

pic_main.c
		_main          		CODE           	9AF4	0000	51
		_isr           		CODE           	0008	0000	57

pic_main.c estimated size: 108

shared
		_child_pipe    		MEDIUMCONST    	F69D	0000	7
		_html_page     		MEDIUMCONST    	0000	0000	0
		_dpowers       		MEDIUMCONST    	F64F	0000	41
		_main_html_p1  		MEDIUMCONST    	FA78	0000	301
		_main_html_p2  		MEDIUMCONST    	FC74	0000	171
		_child_pipe_enable		MEDIUMCONST    	F6A3	0000	7
		__initialization		CODE           	8664	0000	149
		_octpowers     		MEDIUMCONST    	F61F	0000	49
		_hexpowers     		MEDIUMCONST    	F677	0000	33
		_credits_html  		MEDIUMCONST    	F6B5	0000	964
		_child_payload_size		MEDIUMCONST    	F697	0000	7
		_all_ones_addr 		MEDIUMCONST    	0000	0000	0
		_broadcast_ipaddr		MEDIUMCONST    	F6B1	0000	5
		_begin_html    		MEDIUMCONST    	FBA4	0000	209
		_all_zeroes_addr		MEDIUMCONST    	F6AD	0000	5
		_broadcast_ethaddr		MEDIUMCONST    	FD1E	0000	7

shared estimated size: 1955

/opt/microchip/xc8/v1.38/sources/common/Umul16.c
		___wmul        		CODE           	9D50	0000	39

/opt/microchip/xc8/v1.38/sources/common/Umul16.c estimated size: 39

../../../RF24Ethernet_cg/RF24Server_cg.c
		_RF24ES_init   		CODE           	9F50	0000	23
		_RF24ES_begin  		CODE           	9FA6	0000	19
		_RF24ES_available		CODE           	7D7A	0000	217

../../../RF24Ethernet_cg/RF24Server_cg.c estimated size: 259

../../utility/uip.c
		_uip_add_rcv_nxt		CODE           	9036	0000	103
		_uip_ipchksum  		CODE           	9694	0000	73
		_uip_listen    		CODE           	9524	0000	75
		_uip_process   		CODE           	001C	0000	7149
		_uip_add32     		CODE           	85B2	0000	179
		_chksum        		CODE           	8222	0000	187
		_upper_layer_chksum		CODE           	80AA	0000	189
		_htons         		CODE           	9FB8	0000	19
		_uip_init      		CODE           	8E90	0000	109
		_uip_send      		CODE           	9768	0000	71
		_uip_tcpchksum 		CODE           	9FEC	0000	17

../../utility/uip.c estimated size: 8171

/opt/microchip/xc8/v1.38/sources/common/strncpy.c
		_strncpy       		CODE           	9164	0000	99

/opt/microchip/xc8/v1.38/sources/common/strncpy.c estimated size: 99

../../../RF24Ethernet_cg/RF24Ethernet_cg.c
		_RF24E_set_gateway		CODE           	7914	0000	243
		_RF24E_begin_i 		CODE           	96DC	0000	71
		_RF24E_begin_idgs		CODE           	9CB8	0000	39
		_RF24E_configure		CODE           	54B4	0000	865
		_RF24E_begin_id		CODE           	948A	0000	79
		_RF24E_tick    		CODE           	7FEC	0000	191
		_RF24E_begin_idg		CODE           	9B58	0000	49
		_RF24E_network_send		CODE           	95B8	0000	75
		_RF24E_init    		CODE           	A0A6	0000	3

../../../RF24Ethernet_cg/RF24Ethernet_cg.c estimated size: 1615

